Archive member included because of file (symbol)

source/lib_videoout_machikania.X.a(videoout.o)
                              build/pickit3/production/_ext/1248472724/editor.o (TVRAM)
source/lib_videoout_machikania.X.a(textvideolib.o)
                              build/pickit3/production/_ext/1248472724/editor.o (setcursor)
source/lib_videoout_machikania.X.a(graphvideolib.o)
                              build/pickit3/production/_ext/1248472724/library.o (g_pset)
source/ps2keyboard.X.a(ps2keyboard.o)
                              build/pickit3/production/_ext/1248472724/library.o (keytype)
source/libsdfsio.a(FSIO.o)    build/pickit3/production/_ext/1248472724/editor.o (FSInit)
source/libsdfsio.a(SD-SPI.o)  source/libsdfsio.a(FSIO.o) (MDD_SDSPI_InitIO)
/opt/microchip/xc32/v1.32/bin/bin/../../lib/gcc/pic32mx/4.5.2/../../../../pic32mx/lib/size/libmchp_peripheral_32MX150F128B.a(soft_reset_lib.o)
                              build/pickit3/production/_ext/1248472724/exception.o (SoftReset)
/opt/microchip/xc32/v1.32/bin/bin/../../lib/gcc/pic32mx/4.5.2/../../../../pic32mx/lib/size/libmchp_peripheral_32MX150F128B.a(osc_config_lib.o)
                              source/lib_videoout_machikania.X.a(videoout.o) (OSCConfig)
/opt/microchip/xc32/v1.32/bin/bin/../../lib/gcc/pic32mx/4.5.2/../../../../pic32mx/lib/size/libmchp_peripheral_32MX150F128B.a(int_disable_interrupts_lib.o)
                              /opt/microchip/xc32/v1.32/bin/bin/../../lib/gcc/pic32mx/4.5.2/../../../../pic32mx/lib/size/libmchp_peripheral_32MX150F128B.a(soft_reset_lib.o) (INTDisableInterrupts)
/opt/microchip/xc32/v1.32/bin/bin/../../lib/gcc/pic32mx/4.5.2/../../../../pic32mx/lib/size/libmchp_peripheral_32MX150F128B.a(int_restore_interrupts_lib.o)
                              /opt/microchip/xc32/v1.32/bin/bin/../../lib/gcc/pic32mx/4.5.2/../../../../pic32mx/lib/size/libmchp_peripheral_32MX150F128B.a(osc_config_lib.o) (INTRestoreInterrupts)
/opt/microchip/xc32/v1.32/bin/bin/../../lib/gcc/pic32mx/4.5.2/../../../../pic32mx/lib/size/libmchp_peripheral_32MX150F128B.a(int_enable_mv_int_lib.o)
                              source/lib_videoout_machikania.X.a(videoout.o) (INTEnableSystemMultiVectoredInt)
/opt/microchip/xc32/v1.32/bin/bin/../../lib/gcc/pic32mx/4.5.2/../../../../pic32mx/lib/size/libmchp_peripheral_32MX150F128B.a(spi_getc_spi2_lib_legacy.o)
                              source/libsdfsio.a(SD-SPI.o) (getcSPI2)
/opt/microchip/xc32/v1.32/bin/bin/../../lib/gcc/pic32mx/4.5.2/../../../../pic32mx/lib/size/libmchp_peripheral_32MX150F128B.a(spi_open_spi2_lib_legacy.o)
                              source/libsdfsio.a(SD-SPI.o) (OpenSPI2)
/opt/microchip/xc32/v1.32/bin/bin/../../lib/gcc/pic32mx/4.5.2/../../../../pic32mx/lib/size/libmchp_peripheral_32MX150F128B.a(spi_brg_tbl_lib_legacy.o)
                              /opt/microchip/xc32/v1.32/bin/bin/../../lib/gcc/pic32mx/4.5.2/../../../../pic32mx/lib/size/libmchp_peripheral_32MX150F128B.a(spi_open_spi2_lib_legacy.o) (_SpiBrgConvTbl)
/opt/microchip/xc32/v1.32/bin/bin/../../lib/gcc/pic32mx/4.5.2/../../../../pic32mx/lib/size/libmchp_peripheral_32MX150F128B.a(nvm_write_word_lib.o)
                              build/pickit3/production/_ext/1248472724/main.o (NVMWriteWord)
/opt/microchip/xc32/v1.32/bin/bin/../../lib/gcc/pic32mx/4.5.2/../../../../pic32mx/lib/size/libmchp_peripheral_32MX150F128B.a(int_enable_interrupts_lib.o)
                              /opt/microchip/xc32/v1.32/bin/bin/../../lib/gcc/pic32mx/4.5.2/../../../../pic32mx/lib/size/libmchp_peripheral_32MX150F128B.a(int_enable_mv_int_lib.o) (INTEnableInterrupts)
/opt/microchip/xc32/v1.32/bin/bin/../../lib/gcc/pic32mx/4.5.2/../../../../pic32mx/lib/size/libmchp_peripheral_32MX150F128B.a(nvm_operation_lib.o)
                              /opt/microchip/xc32/v1.32/bin/bin/../../lib/gcc/pic32mx/4.5.2/../../../../pic32mx/lib/size/libmchp_peripheral_32MX150F128B.a(nvm_write_word_lib.o) (_NVMOperation)
/opt/microchip/xc32/v1.32/bin/bin/../../lib/gcc/pic32mx/4.5.2/../../../../pic32mx/lib/size/libm.a(fp32div.o)
                              build/pickit3/production/_ext/1248472724/operator.o (__divsf3)
/opt/microchip/xc32/v1.32/bin/bin/../../lib/gcc/pic32mx/4.5.2/../../../../pic32mx/lib/size/libm.a(fp32mul.o)
                              build/pickit3/production/_ext/1248472724/operator.o (__mulsf3)
/opt/microchip/xc32/v1.32/bin/bin/../../lib/gcc/pic32mx/4.5.2/../../../../pic32mx/lib/size/libm.a(fp32subadd.o)
                              build/pickit3/production/_ext/1248472724/operator.o (__subsf3)
/opt/microchip/xc32/v1.32/bin/bin/../../lib/gcc/pic32mx/4.5.2/../../../../pic32mx/lib/size/libm.a(fpatan.o)
                              build/pickit3/production/_ext/1248472724/library.o (atanf)
/opt/microchip/xc32/v1.32/bin/bin/../../lib/gcc/pic32mx/4.5.2/../../../../pic32mx/lib/size/libm.a(fpceil32.o)
                              build/pickit3/production/_ext/1248472724/library.o (ceilf)
/opt/microchip/xc32/v1.32/bin/bin/../../lib/gcc/pic32mx/4.5.2/../../../../pic32mx/lib/size/libm.a(fpcmp.o)
                              build/pickit3/production/_ext/1248472724/operator.o (__eqsf2)
/opt/microchip/xc32/v1.32/bin/bin/../../lib/gcc/pic32mx/4.5.2/../../../../pic32mx/lib/size/libm.a(fpcos32.o)
                              build/pickit3/production/_ext/1248472724/library.o (cosf)
/opt/microchip/xc32/v1.32/bin/bin/../../lib/gcc/pic32mx/4.5.2/../../../../pic32mx/lib/size/libm.a(fpexatan.o)
                              /opt/microchip/xc32/v1.32/bin/bin/../../lib/gcc/pic32mx/4.5.2/../../../../pic32mx/lib/size/libm.a(fpatan.o) (fpexatan)
/opt/microchip/xc32/v1.32/bin/bin/../../lib/gcc/pic32mx/4.5.2/../../../../pic32mx/lib/size/libm.a(fpfloo32.o)
                              build/pickit3/production/_ext/1248472724/library.o (floorf)
/opt/microchip/xc32/v1.32/bin/bin/../../lib/gcc/pic32mx/4.5.2/../../../../pic32mx/lib/size/libm.a(fpfmod.o)
                              build/pickit3/production/_ext/1248472724/library.o (fmodf)
/opt/microchip/xc32/v1.32/bin/bin/../../lib/gcc/pic32mx/4.5.2/../../../../pic32mx/lib/size/libm.a(fpmodf.o)
                              build/pickit3/production/_ext/1248472724/library.o (modff)
/opt/microchip/xc32/v1.32/bin/bin/../../lib/gcc/pic32mx/4.5.2/../../../../pic32mx/lib/size/libm.a(fpreduct32.o)
                              /opt/microchip/xc32/v1.32/bin/bin/../../lib/gcc/pic32mx/4.5.2/../../../../pic32mx/lib/size/libm.a(fpcos32.o) (fpreduct)
/opt/microchip/xc32/v1.32/bin/bin/../../lib/gcc/pic32mx/4.5.2/../../../../pic32mx/lib/size/libm.a(fpsin32.o)
                              build/pickit3/production/_ext/1248472724/library.o (sinf)
/opt/microchip/xc32/v1.32/bin/bin/../../lib/gcc/pic32mx/4.5.2/../../../../pic32mx/lib/size/libm.a(fpexsqrt32.o)
                              /opt/microchip/xc32/v1.32/bin/bin/../../lib/gcc/pic32mx/4.5.2/../../../../pic32mx/lib/size/libm.a(fpatan.o) (fpexsqrt)
/opt/microchip/xc32/v1.32/bin/bin/../../lib/gcc/pic32mx/4.5.2/../../../../pic32mx/lib/size/libm.a(fptan32.o)
                              build/pickit3/production/_ext/1248472724/library.o (tanf)
/opt/microchip/xc32/v1.32/bin/bin/../../lib/gcc/pic32mx/4.5.2/../../../../pic32mx/lib/size/libm.a(fptanh.o)
                              build/pickit3/production/_ext/1248472724/library.o (tanhf)
/opt/microchip/xc32/v1.32/bin/bin/../../lib/gcc/pic32mx/4.5.2/../../../../pic32mx/lib/size/libm.a(fptoli.o)
                              build/pickit3/production/_ext/1248472724/library.o (__fixsfsi)
/opt/microchip/xc32/v1.32/bin/bin/../../lib/gcc/pic32mx/4.5.2/../../../../pic32mx/lib/size/libm.a(sincof32.o)
                              /opt/microchip/xc32/v1.32/bin/bin/../../lib/gcc/pic32mx/4.5.2/../../../../pic32mx/lib/size/libm.a(fpcos32.o) (_sincof)
/opt/microchip/xc32/v1.32/bin/bin/../../lib/gcc/pic32mx/4.5.2/../../../../pic32mx/lib/size/libm.a(sitofp.o)
                              build/pickit3/production/_ext/1248472724/library.o (__floatsisf)
/opt/microchip/xc32/v1.32/bin/bin/../../lib/gcc/pic32mx/4.5.2/../../../../pic32mx/lib/size/libm.a(w_acosf.o)
                              build/pickit3/production/_ext/1248472724/library.o (acosf)
/opt/microchip/xc32/v1.32/bin/bin/../../lib/gcc/pic32mx/4.5.2/../../../../pic32mx/lib/size/libm.a(w_asinf.o)
                              build/pickit3/production/_ext/1248472724/library.o (asinf)
/opt/microchip/xc32/v1.32/bin/bin/../../lib/gcc/pic32mx/4.5.2/../../../../pic32mx/lib/size/libm.a(w_atan2f.o)
                              build/pickit3/production/_ext/1248472724/library.o (atan2f)
/opt/microchip/xc32/v1.32/bin/bin/../../lib/gcc/pic32mx/4.5.2/../../../../pic32mx/lib/size/libm.a(w_coshf.o)
                              build/pickit3/production/_ext/1248472724/library.o (coshf)
/opt/microchip/xc32/v1.32/bin/bin/../../lib/gcc/pic32mx/4.5.2/../../../../pic32mx/lib/size/libm.a(w_expf.o)
                              build/pickit3/production/_ext/1248472724/library.o (expf)
/opt/microchip/xc32/v1.32/bin/bin/../../lib/gcc/pic32mx/4.5.2/../../../../pic32mx/lib/size/libm.a(w_log10f.o)
                              build/pickit3/production/_ext/1248472724/library.o (log10f)
/opt/microchip/xc32/v1.32/bin/bin/../../lib/gcc/pic32mx/4.5.2/../../../../pic32mx/lib/size/libm.a(w_logf.o)
                              build/pickit3/production/_ext/1248472724/library.o (logf)
/opt/microchip/xc32/v1.32/bin/bin/../../lib/gcc/pic32mx/4.5.2/../../../../pic32mx/lib/size/libm.a(w_powf.o)
                              build/pickit3/production/_ext/1248472724/library.o (powf)
/opt/microchip/xc32/v1.32/bin/bin/../../lib/gcc/pic32mx/4.5.2/../../../../pic32mx/lib/size/libm.a(w_sinhf.o)
                              build/pickit3/production/_ext/1248472724/library.o (sinhf)
/opt/microchip/xc32/v1.32/bin/bin/../../lib/gcc/pic32mx/4.5.2/../../../../pic32mx/lib/size/libm.a(w_sqrtf.o)
                              build/pickit3/production/_ext/1248472724/library.o (sqrtf)
/opt/microchip/xc32/v1.32/bin/bin/../../lib/gcc/pic32mx/4.5.2/../../../../pic32mx/lib/size/libm.a(support.o)
                              /opt/microchip/xc32/v1.32/bin/bin/../../lib/gcc/pic32mx/4.5.2/../../../../pic32mx/lib/size/libm.a(w_atan2f.o) (finitel)
/opt/microchip/xc32/v1.32/bin/bin/../../lib/gcc/pic32mx/4.5.2/../../../../pic32mx/lib/size/libm.a(dpldexp.o)
                              /opt/microchip/xc32/v1.32/bin/bin/../../lib/gcc/pic32mx/4.5.2/../../../../pic32mx/lib/size/libm.a(support.o) (ldexp)
/opt/microchip/xc32/v1.32/bin/bin/../../lib/gcc/pic32mx/4.5.2/../../../../pic32mx/lib/size/libm.a(dp32div.o)
                              /opt/microchip/xc32/v1.32/bin/bin/../../lib/gcc/pic32mx/4.5.2/../../../../pic32mx/lib/size/libm.a(support.o) (dpdiv)
/opt/microchip/xc32/v1.32/bin/bin/../../lib/gcc/pic32mx/4.5.2/../../../../pic32mx/lib/size/libm.a(dp32mul.o)
                              /opt/microchip/xc32/v1.32/bin/bin/../../lib/gcc/pic32mx/4.5.2/../../../../pic32mx/lib/size/libm.a(support.o) (dpmul)
/opt/microchip/xc32/v1.32/bin/bin/../../lib/gcc/pic32mx/4.5.2/../../../../pic32mx/lib/size/libm.a(dp32subadd.o)
                              /opt/microchip/xc32/v1.32/bin/bin/../../lib/gcc/pic32mx/4.5.2/../../../../pic32mx/lib/size/libm.a(support.o) (dpsub)
/opt/microchip/xc32/v1.32/bin/bin/../../lib/gcc/pic32mx/4.5.2/../../../../pic32mx/lib/size/libm.a(dpcmp.o)
                              /opt/microchip/xc32/v1.32/bin/bin/../../lib/gcc/pic32mx/4.5.2/../../../../pic32mx/lib/size/libm.a(w_atan2f.o) (dpcmp)
/opt/microchip/xc32/v1.32/bin/bin/../../lib/gcc/pic32mx/4.5.2/../../../../pic32mx/lib/size/libm.a(dptofp.o)
                              /opt/microchip/xc32/v1.32/bin/bin/../../lib/gcc/pic32mx/4.5.2/../../../../pic32mx/lib/size/libm.a(w_acosf.o) (dptofp)
/opt/microchip/xc32/v1.32/bin/bin/../../lib/gcc/pic32mx/4.5.2/../../../../pic32mx/lib/size/libm.a(fpacos.o)
                              /opt/microchip/xc32/v1.32/bin/bin/../../lib/gcc/pic32mx/4.5.2/../../../../pic32mx/lib/size/libm.a(w_acosf.o) (__mchp_acosf)
/opt/microchip/xc32/v1.32/bin/bin/../../lib/gcc/pic32mx/4.5.2/../../../../pic32mx/lib/size/libm.a(fpasin.o)
                              /opt/microchip/xc32/v1.32/bin/bin/../../lib/gcc/pic32mx/4.5.2/../../../../pic32mx/lib/size/libm.a(w_asinf.o) (__mchp_asinf)
/opt/microchip/xc32/v1.32/bin/bin/../../lib/gcc/pic32mx/4.5.2/../../../../pic32mx/lib/size/libm.a(fpatan2.o)
                              /opt/microchip/xc32/v1.32/bin/bin/../../lib/gcc/pic32mx/4.5.2/../../../../pic32mx/lib/size/libm.a(w_atan2f.o) (__mchp_atan2f)
/opt/microchip/xc32/v1.32/bin/bin/../../lib/gcc/pic32mx/4.5.2/../../../../pic32mx/lib/size/libm.a(fpcosh.o)
                              /opt/microchip/xc32/v1.32/bin/bin/../../lib/gcc/pic32mx/4.5.2/../../../../pic32mx/lib/size/libm.a(w_coshf.o) (__mchp_coshf)
/opt/microchip/xc32/v1.32/bin/bin/../../lib/gcc/pic32mx/4.5.2/../../../../pic32mx/lib/size/libm.a(fpexp32.o)
                              /opt/microchip/xc32/v1.32/bin/bin/../../lib/gcc/pic32mx/4.5.2/../../../../pic32mx/lib/size/libm.a(fptanh.o) (fpexexp)
/opt/microchip/xc32/v1.32/bin/bin/../../lib/gcc/pic32mx/4.5.2/../../../../pic32mx/lib/size/libm.a(fpfabs.o)
                              /opt/microchip/xc32/v1.32/bin/bin/../../lib/gcc/pic32mx/4.5.2/../../../../pic32mx/lib/size/libm.a(w_acosf.o) (fabsf)
/opt/microchip/xc32/v1.32/bin/bin/../../lib/gcc/pic32mx/4.5.2/../../../../pic32mx/lib/size/libm.a(fplog.o)
                              /opt/microchip/xc32/v1.32/bin/bin/../../lib/gcc/pic32mx/4.5.2/../../../../pic32mx/lib/size/libm.a(w_logf.o) (__mchp_logf)
/opt/microchip/xc32/v1.32/bin/bin/../../lib/gcc/pic32mx/4.5.2/../../../../pic32mx/lib/size/libm.a(fplog10.o)
                              /opt/microchip/xc32/v1.32/bin/bin/../../lib/gcc/pic32mx/4.5.2/../../../../pic32mx/lib/size/libm.a(w_log10f.o) (__mchp_log10f)
/opt/microchip/xc32/v1.32/bin/bin/../../lib/gcc/pic32mx/4.5.2/../../../../pic32mx/lib/size/libm.a(fppow32.o)
                              /opt/microchip/xc32/v1.32/bin/bin/../../lib/gcc/pic32mx/4.5.2/../../../../pic32mx/lib/size/libm.a(w_powf.o) (__mchp_powf)
/opt/microchip/xc32/v1.32/bin/bin/../../lib/gcc/pic32mx/4.5.2/../../../../pic32mx/lib/size/libm.a(fpsinh.o)
                              /opt/microchip/xc32/v1.32/bin/bin/../../lib/gcc/pic32mx/4.5.2/../../../../pic32mx/lib/size/libm.a(w_sinhf.o) (__mchp_sinhf)
/opt/microchip/xc32/v1.32/bin/bin/../../lib/gcc/pic32mx/4.5.2/../../../../pic32mx/lib/size/libm.a(fpsqrt32.o)
                              /opt/microchip/xc32/v1.32/bin/bin/../../lib/gcc/pic32mx/4.5.2/../../../../pic32mx/lib/size/libm.a(w_sqrtf.o) (__mchp_sqrtf)
/opt/microchip/xc32/v1.32/bin/bin/../../lib/gcc/pic32mx/4.5.2/../../../../pic32mx/lib/size/libm.a(fptodp.o)
                              /opt/microchip/xc32/v1.32/bin/bin/../../lib/gcc/pic32mx/4.5.2/../../../../pic32mx/lib/size/libm.a(w_atan2f.o) (fptodp)
/opt/microchip/xc32/v1.32/bin/bin/../../lib/gcc/pic32mx/4.5.2/../../../../pic32mx/lib/size/libm.a(litodp.o)
                              /opt/microchip/xc32/v1.32/bin/bin/../../lib/gcc/pic32mx/4.5.2/../../../../pic32mx/lib/size/libm.a(support.o) (litodp)
/opt/microchip/xc32/v1.32/bin/bin/../../lib/gcc/pic32mx/4.5.2/../../../../pic32mx/lib/size/libm.a(s_lib_ver.o)
                              /opt/microchip/xc32/v1.32/bin/bin/../../lib/gcc/pic32mx/4.5.2/../../../../pic32mx/lib/size/libm.a(w_acosf.o) (math_errhandling)
/opt/microchip/xc32/v1.32/bin/bin/../../lib/gcc/pic32mx/4.5.2/../../../../pic32mx/lib/size/libm.a(fpexlog.o)
                              /opt/microchip/xc32/v1.32/bin/bin/../../lib/gcc/pic32mx/4.5.2/../../../../pic32mx/lib/size/libm.a(fplog.o) (fpexlog)
/opt/microchip/xc32/v1.32/bin/bin/../../lib/gcc/pic32mx/4.5.2/../../../../pic32mx/lib/size/libpic32.a(memset.o)
                              source/libsdfsio.a(FSIO.o) (memset)
/opt/microchip/xc32/v1.32/bin/bin/../../lib/gcc/pic32mx/4.5.2/../../../../pic32mx/lib/size/libpic32.a(strcpy.o)
                              source/libsdfsio.a(FSIO.o) (strcpy)
/opt/microchip/xc32/v1.32/bin/bin/../../lib/gcc/pic32mx/4.5.2/../../../../pic32mx/lib/size/libpic32.a(strlen.o)
                              source/libsdfsio.a(FSIO.o) (strlen)
/opt/microchip/xc32/v1.32/bin/bin/../../lib/gcc/pic32mx/4.5.2/../../../../pic32mx/lib/size/libpic32.a(default-bootstrap-exception-handler.o)
                              build/pickit3/production/_ext/618058229/crt0.o (_bootstrap_exception_handler)
/opt/microchip/xc32/v1.32/bin/bin/../../lib/gcc/pic32mx/4.5.2/../../../../pic32mx/lib/size/libpic32.a(default-on-reset.o)
                              build/pickit3/production/_ext/618058229/crt0.o (_on_reset)
/opt/microchip/xc32/v1.32/bin/bin/../../lib/gcc/pic32mx/4.5.2/../../../../pic32mx/lib/size/libpic32.a(default-on-bootstrap.o)
                              build/pickit3/production/_ext/618058229/crt0.o (_on_bootstrap)
/opt/microchip/xc32/v1.32/bin/bin/../../lib/gcc/pic32mx/4.5.2/../../../../pic32mx/lib/size/libpic32.a(default-nmi-handler.o)
                              build/pickit3/production/_ext/618058229/crt0.o (_nmi_handler)
/opt/microchip/xc32/v1.32/bin/bin/../../lib/gcc/pic32mx/4.5.2/../../../../pic32mx/lib/size/libpic32.a(errno.o)
                              /opt/microchip/xc32/v1.32/bin/bin/../../lib/gcc/pic32mx/4.5.2/../../../../pic32mx/lib/size/libm.a(w_acosf.o) (errno)
/opt/microchip/xc32/v1.32/bin/bin/../../lib/gcc/pic32mx/4.5.2/../../../../pic32mx/lib/size/libpic32.a(isinf.o)
                              /opt/microchip/xc32/v1.32/bin/bin/../../lib/gcc/pic32mx/4.5.2/../../../../pic32mx/lib/size/libm.a(w_coshf.o) (isinfl)
/opt/microchip/xc32/v1.32/bin/bin/../../lib/gcc/pic32mx/4.5.2/../../../../pic32mx/lib/size/libpic32.a(general-exception.o)
                              build/pickit3/production/_ext/618058229/crt0.o (_general_exception_context)
/opt/microchip/xc32/v1.32/bin/bin/../../lib/gcc/pic32mx/4.5.2/../../../../pic32mx/lib/size/libe.a(_unorddf2.o)
                              /opt/microchip/xc32/v1.32/bin/bin/../../lib/gcc/pic32mx/4.5.2/../../../../pic32mx/lib/size/libpic32.a(isinf.o) (__unorddf2)
/opt/microchip/xc32/v1.32/bin/bin/../../lib/gcc/pic32mx/4.5.2/../../../../pic32mx/lib/size/libc.a(ctypef.o)
                              source/libsdfsio.a(FSIO.o) (tolower)
/opt/microchip/xc32/v1.32/bin/bin/../../lib/gcc/pic32mx/4.5.2/../../../../pic32mx/lib/size/libc.a(strncpy.o)
                              source/libsdfsio.a(FSIO.o) (strncpy)
/opt/microchip/xc32/v1.32/bin/bin/../../lib/gcc/pic32mx/4.5.2/../../../../pic32mx/lib/size/libc.a(strtof.o)
                              build/pickit3/production/_ext/1248472724/float.o (strtof)
/opt/microchip/xc32/v1.32/bin/bin/../../lib/gcc/pic32mx/4.5.2/../../../../pic32mx/lib/size/libc.a(snprintf.o)
                              build/pickit3/production/_ext/1248472724/library.o (snprintf)
/opt/microchip/xc32/v1.32/bin/bin/../../lib/gcc/pic32mx/4.5.2/../../../../pic32mx/lib/size/libc.a(vsnprintf.o)
                              /opt/microchip/xc32/v1.32/bin/bin/../../lib/gcc/pic32mx/4.5.2/../../../../pic32mx/lib/size/libc.a(snprintf.o) (vsnprintf)
/opt/microchip/xc32/v1.32/bin/bin/../../lib/gcc/pic32mx/4.5.2/../../../../pic32mx/lib/size/libc.a(ctype.o)
                              /opt/microchip/xc32/v1.32/bin/bin/../../lib/gcc/pic32mx/4.5.2/../../../../pic32mx/lib/size/libc.a(ctypef.o) (_ctype)
/opt/microchip/xc32/v1.32/bin/bin/../../lib/gcc/pic32mx/4.5.2/../../../../pic32mx/lib/size/libc.a(doprnt.o)
                              /opt/microchip/xc32/v1.32/bin/bin/../../lib/gcc/pic32mx/4.5.2/../../../../pic32mx/lib/size/libc.a(vsnprintf.o) (vfprintf)
/opt/microchip/xc32/v1.32/bin/bin/../../lib/gcc/pic32mx/4.5.2/../../../../pic32mx/lib/size/libc.a(_fputc_simple.o)
                              /opt/microchip/xc32/v1.32/bin/bin/../../lib/gcc/pic32mx/4.5.2/../../../../pic32mx/lib/size/libc.a(doprnt.o) (fputc)
/opt/microchip/xc32/v1.32/bin/bin/../../lib/gcc/pic32mx/4.5.2/../../../../pic32mx/lib/size/libc.a(powersf.o)
                              /opt/microchip/xc32/v1.32/bin/bin/../../lib/gcc/pic32mx/4.5.2/../../../../pic32mx/lib/size/libc.a(doprnt.o) (_powers_f)
/opt/microchip/xc32/v1.32/bin/bin/../../lib/gcc/pic32mx/4.5.2/../../../../pic32mx/lib/size/libc.a(_iob.o)
                              /opt/microchip/xc32/v1.32/bin/bin/../../lib/gcc/pic32mx/4.5.2/../../../../pic32mx/lib/size/libc.a(_fputc_simple.o) (_outdone)
/opt/microchip/xc32/v1.32/bin/bin/../../lib/gcc/pic32mx/4.5.2/../../../../pic32mx/lib/size/libc.a(_flsbuf_simple.o)
                              /opt/microchip/xc32/v1.32/bin/bin/../../lib/gcc/pic32mx/4.5.2/../../../../pic32mx/lib/size/libc.a(_fputc_simple.o) (_flsbuf)
/opt/microchip/xc32/v1.32/bin/bin/../../lib/gcc/pic32mx/4.5.2/../../../../pic32mx/lib/size/libpic32.a(write.o)
                              /opt/microchip/xc32/v1.32/bin/bin/../../lib/gcc/pic32mx/4.5.2/../../../../pic32mx/lib/size/libc.a(_fputc_simple.o) (write)
/opt/microchip/xc32/v1.32/bin/bin/../../lib/gcc/pic32mx/4.5.2/../../../../pic32mx/lib/size/libpic32.a(_mon_putc.o)
                              /opt/microchip/xc32/v1.32/bin/bin/../../lib/gcc/pic32mx/4.5.2/../../../../pic32mx/lib/size/libpic32.a(write.o) (_mon_putc)
/opt/microchip/xc32/v1.32/bin/bin/../../lib/gcc/pic32mx/4.5.2/../../../../pic32mx/lib/size/libpic32.a(xc32_uart.o)
                              /opt/microchip/xc32/v1.32/bin/bin/../../lib/gcc/pic32mx/4.5.2/../../../../pic32mx/lib/size/libpic32.a(_mon_putc.o) (__XC_UART)
/opt/microchip/xc32/v1.32/bin/bin/../../lib/gcc/pic32mx/4.5.2/../../../../pic32mx/lib/size/libm.a(fpfrexp.o)
                              /opt/microchip/xc32/v1.32/bin/bin/../../lib/gcc/pic32mx/4.5.2/../../../../pic32mx/lib/size/libc.a(doprnt.o) (frexpf)
/opt/microchip/xc32/v1.32/bin/bin/../../lib/gcc/pic32mx/4.5.2/../../../../pic32mx/lib/size/libm.a(fptoul.o)
                              /opt/microchip/xc32/v1.32/bin/bin/../../lib/gcc/pic32mx/4.5.2/../../../../pic32mx/lib/size/libc.a(doprnt.o) (fptoui)
/opt/microchip/xc32/v1.32/bin/bin/../../lib/gcc/pic32mx/4.5.2/../../../../pic32mx/lib/size/libm.a(__strtof.o)
                              /opt/microchip/xc32/v1.32/bin/bin/../../lib/gcc/pic32mx/4.5.2/../../../../pic32mx/lib/size/libc.a(strtof.o) (__strtof)
/opt/microchip/xc32/v1.32/bin/bin/../../lib/gcc/pic32mx/4.5.2/../../../../pic32mx/lib/size/libm.a(negsf2.o)
                              /opt/microchip/xc32/v1.32/bin/bin/../../lib/gcc/pic32mx/4.5.2/../../../../pic32mx/lib/size/libm.a(__strtof.o) (__negsf2)
/opt/microchip/xc32/v1.32/bin/bin/../../lib/gcc/pic32mx/4.5.2/../../../../pic32mx/lib/size/libe.a(_floatdisf.o)
                              /opt/microchip/xc32/v1.32/bin/bin/../../lib/gcc/pic32mx/4.5.2/../../../../pic32mx/lib/size/libc.a(doprnt.o) (__floatdisf)
/opt/microchip/xc32/v1.32/bin/bin/../../lib/gcc/pic32mx/4.5.2/../../../../pic32mx/lib/size/libe.a(_ldexpf.o)
                              /opt/microchip/xc32/v1.32/bin/bin/../../lib/gcc/pic32mx/4.5.2/../../../../pic32mx/lib/size/libm.a(__strtof.o) (__ldexpf)
/opt/microchip/xc32/v1.32/bin/bin/../../lib/gcc/pic32mx/4.5.2/size/libgcc.a(_lshrdi3.o)
                              /opt/microchip/xc32/v1.32/bin/bin/../../lib/gcc/pic32mx/4.5.2/../../../../pic32mx/lib/size/libc.a(doprnt.o) (__lshrdi3)
/opt/microchip/xc32/v1.32/bin/bin/../../lib/gcc/pic32mx/4.5.2/size/libgcc.a(_floatundisf.o)
                              /opt/microchip/xc32/v1.32/bin/bin/../../lib/gcc/pic32mx/4.5.2/../../../../pic32mx/lib/size/libc.a(doprnt.o) (__floatundisf)
/opt/microchip/xc32/v1.32/bin/bin/../../lib/gcc/pic32mx/4.5.2/size/libgcc.a(_udivdi3.o)
                              /opt/microchip/xc32/v1.32/bin/bin/../../lib/gcc/pic32mx/4.5.2/../../../../pic32mx/lib/size/libc.a(doprnt.o) (__udivdi3)
/opt/microchip/xc32/v1.32/bin/bin/../../lib/gcc/pic32mx/4.5.2/size/libgcc.a(_umoddi3.o)
                              /opt/microchip/xc32/v1.32/bin/bin/../../lib/gcc/pic32mx/4.5.2/../../../../pic32mx/lib/size/libc.a(doprnt.o) (__umoddi3)
/opt/microchip/xc32/v1.32/bin/bin/../../lib/gcc/pic32mx/4.5.2/size/libgcc.a(floatunsisf.o)
                              /opt/microchip/xc32/v1.32/bin/bin/../../lib/gcc/pic32mx/4.5.2/../../../../pic32mx/lib/size/libc.a(doprnt.o) (__floatunsisf)

Allocating common symbols
Common symbol       size              file

ClTable             0x400             source/lib_videoout_machikania.X.a(videoout.o)
clipsize            0x4               build/pickit3/production/_ext/1248472724/editor.o
drawcount           0x2               source/lib_videoout_machikania.X.a(videoout.o)
g_var_size          0x60              build/pickit3/production/_ext/1248472724/globalvars.o
editormallocp       0x4               build/pickit3/production/_ext/1248472724/editor.o
g_sdepth            0x4               build/pickit3/production/_ext/1248472724/globalvars.o
cx2                 0x4               build/pickit3/production/_ext/1248472724/editor.o
cwdpath             0x4               build/pickit3/production/_ext/1248472724/editor.o
blinktimer          0x4               build/pickit3/production/_ext/1248472724/keyinput.o
clipboard           0x4               build/pickit3/production/_ext/1248472724/editor.o
disptopix_t         0x2               build/pickit3/production/_ext/1248472724/editor.o
gDataBuffer         0x200             source/libsdfsio.a(FSIO.o)
g_var_mem           0xc0              build/pickit3/production/_ext/1248472724/globalvars.o
VRAMp               0x4               source/lib_videoout_machikania.X.a(videoout.o)
g_temp_area_used    0x1               build/pickit3/production/_ext/1248472724/globalvars.o
g_source            0x4               build/pickit3/production/_ext/1248472724/globalvars.o
tempDirectoryString
                    0xe               source/libsdfsio.a(FSIO.o)
currentfile         0xd               build/pickit3/production/_ext/1248472724/editor.o
cy                  0x4               build/pickit3/production/_ext/1248472724/editor.o
TBufstart           0x4               build/pickit3/production/_ext/1248472724/editor.o
disptopbp_t         0x4               build/pickit3/production/_ext/1248472724/editor.o
line_no_t           0x4               build/pickit3/production/_ext/1248472724/editor.o
line_no1            0x4               build/pickit3/production/_ext/1248472724/editor.o
cx                  0x4               build/pickit3/production/_ext/1248472724/editor.o
gFileSlotOpen       0x2               source/libsdfsio.a(FSIO.o)
line_no             0x4               build/pickit3/production/_ext/1248472724/editor.o
gTimeCrtMS          0x1               source/libsdfsio.a(FSIO.o)
ps2receiveError     0x1               source/ps2keyboard.X.a(ps2keyboard.o)
MDD_SDSPI_finalLBA  0x4               source/libsdfsio.a(SD-SPI.o)
ps2sendError        0x1               source/ps2keyboard.X.a(ps2keyboard.o)
g_srcpos            0x4               build/pickit3/production/_ext/1248472724/globalvars.o
cwd                 0x3c              source/libsdfsio.a(FSIO.o)
g_last_op           0x4               build/pickit3/production/_ext/1248472724/operator.o
g_var_pointer       0x60              build/pickit3/production/_ext/1248472724/globalvars.o
keytype             0x1               source/ps2keyboard.X.a(ps2keyboard.o)
cursorcolor         0x1               source/lib_videoout_machikania.X.a(textvideolib.o)
cx_t                0x4               build/pickit3/production/_ext/1248472724/editor.o
TextBuffer          0x4               build/pickit3/production/_ext/1248472724/editor.o
g_line              0x4               build/pickit3/production/_ext/1248472724/globalvars.o
ps2sendcomdata      0x4               source/ps2keyboard.X.a(ps2keyboard.o)
g_object            0x4               build/pickit3/production/_ext/1248472724/globalvars.o
g_fileline          0x4               build/pickit3/production/_ext/1248472724/globalvars.o
tempCWDobj          0x3c              source/libsdfsio.a(FSIO.o)
ps2sending          0x1               source/ps2keyboard.X.a(ps2keyboard.o)
buff                0x4               build/pickit3/production/_ext/1248472724/document.o
gMediaSectorSize    0x2               source/libsdfsio.a(SD-SPI.o)
g_s6                0x4               build/pickit3/production/_ext/1248472724/globalvars.o
g_rnd_seed          0x4               build/pickit3/production/_ext/1248472724/globalvars.o
insertmode          0x4               build/pickit3/production/_ext/1248472724/keyinput.o
gClTable            0x100             source/lib_videoout_machikania.X.a(videoout.o)
cursorbp_t          0x4               build/pickit3/production/_ext/1248472724/editor.o
bgcolor             0x4               source/lib_videoout_machikania.X.a(videoout.o)
ps2receivecommand   0x1               source/ps2keyboard.X.a(ps2keyboard.o)
g_graphic_area      0x4               build/pickit3/production/_ext/1248472724/globalvars.o
asciiFilename       0x4               source/libsdfsio.a(FSIO.o)
ps2status           0x1               source/ps2keyboard.X.a(ps2keyboard.o)
g_objmax            0x4               build/pickit3/production/_ext/1248472724/globalvars.o
gFATBuffer          0x200             source/libsdfsio.a(FSIO.o)
cursorbp1           0x4               build/pickit3/production/_ext/1248472724/editor.o
g_use_graphic       0x1               build/pickit3/production/_ext/1248472724/globalvars.o
g_libparams         0x4               build/pickit3/production/_ext/1248472724/globalvars.o
gTimeCrtTime        0x2               source/libsdfsio.a(FSIO.o)
gFileArray          0x78              source/libsdfsio.a(FSIO.o)
FatRootDirClusterValue
                    0x4               source/libsdfsio.a(FSIO.o)
twidth              0x1               source/lib_videoout_machikania.X.a(videoout.o)
scancodebuf         0x10              source/ps2keyboard.X.a(ps2keyboard.o)
ps2shiftkey_a       0x2               source/ps2keyboard.X.a(ps2keyboard.o)
senddata            0x2               source/ps2keyboard.X.a(ps2keyboard.o)
gDiskData           0x26              source/libsdfsio.a(FSIO.o)
ps2sendcombyte      0x1               source/ps2keyboard.X.a(ps2keyboard.o)
gTimeWrtDate        0x2               source/libsdfsio.a(FSIO.o)
sendcount           0x1               source/ps2keyboard.X.a(ps2keyboard.o)
fileNameLength      0x2               source/libsdfsio.a(FSIO.o)
cy_t                0x4               build/pickit3/production/_ext/1248472724/editor.o
keycodebuf          0x20              source/ps2keyboard.X.a(ps2keyboard.o)
cursorbp            0x4               build/pickit3/production/_ext/1248472724/editor.o
cursor              0x4               source/lib_videoout_machikania.X.a(textvideolib.o)
g_intconst          0x4               build/pickit3/production/_ext/1248472724/globalvars.o
cx1                 0x4               build/pickit3/production/_ext/1248472724/editor.o
TVRAM               0x871             source/lib_videoout_machikania.X.a(videoout.o)
g_objpos            0x4               build/pickit3/production/_ext/1248472724/globalvars.o
g_maxsdepth         0x4               build/pickit3/production/_ext/1248472724/globalvars.o
ps2shiftkey         0x1               source/ps2keyboard.X.a(ps2keyboard.o)
ps2receivetime      0x4               source/ps2keyboard.X.a(ps2keyboard.o)
disptopix           0x2               build/pickit3/production/_ext/1248472724/editor.o
undobuf_top         0x4               build/pickit3/production/_ext/1248472724/editor.o
vkey                0x2               source/ps2keyboard.X.a(ps2keyboard.o)
cursorix1           0x2               build/pickit3/production/_ext/1248472724/editor.o
cy1                 0x4               build/pickit3/production/_ext/1248472724/editor.o
lineinputbuf        0x100             build/pickit3/production/_ext/1248472724/keyinput.o
undobuf             0x4               build/pickit3/production/_ext/1248472724/editor.o
blinkcolor          0x1               build/pickit3/production/_ext/1248472724/keyinput.o
num                 0x4               build/pickit3/production/_ext/1248472724/editor.o
keycodebufp2        0x4               source/ps2keyboard.X.a(ps2keyboard.o)
cursorix_t          0x2               build/pickit3/production/_ext/1248472724/editor.o
filenames           0x4               build/pickit3/production/_ext/1248472724/editor.o
gTimeCrtDate        0x2               source/libsdfsio.a(FSIO.o)
receivedata         0x1               source/ps2keyboard.X.a(ps2keyboard.o)
tempfile            0xd               build/pickit3/production/_ext/1248472724/editor.o
graphmode           0x1               source/lib_videoout_machikania.X.a(videoout.o)
ps2receivecommandflag
                    0x1               source/ps2keyboard.X.a(ps2keyboard.o)
LineCount           0x2               source/lib_videoout_machikania.X.a(videoout.o)
receivecount        0x1               source/ps2keyboard.X.a(ps2keyboard.o)
g_pcg_font          0x4               build/pickit3/production/_ext/1248472724/globalvars.o
g_heap_mem          0x4               build/pickit3/production/_ext/1248472724/globalvars.o
ps2statuscount      0x4               source/ps2keyboard.X.a(ps2keyboard.o)
TempClusterCalc     0x4               source/libsdfsio.a(FSIO.o)
dirCleared          0x1               source/libsdfsio.a(FSIO.o)
g_lastvar           0x4               build/pickit3/production/_ext/1248472724/globalvars.o
drawing             0x1               source/lib_videoout_machikania.X.a(videoout.o)
scancodebufp2       0x4               source/ps2keyboard.X.a(ps2keyboard.o)
gFileTemp           0x3c              source/libsdfsio.a(FSIO.o)
ps2keystatus        0x100             source/ps2keyboard.X.a(ps2keyboard.o)
g_max_mem           0x4               build/pickit3/production/_ext/1248472724/globalvars.o
g_disable_break     0x1               build/pickit3/production/_ext/1248472724/globalvars.o
defaultArray        0xa               source/libsdfsio.a(FSIO.o)
disptopbp           0x4               build/pickit3/production/_ext/1248472724/editor.o
gVRAM               0x4               source/lib_videoout_machikania.X.a(videoout.o)
gSDMode             0x1               source/libsdfsio.a(SD-SPI.o)
fontp               0x4               source/lib_videoout_machikania.X.a(videoout.o)
edited              0x4               build/pickit3/production/_ext/1248472724/editor.o
undobuf_used        0x4               build/pickit3/production/_ext/1248472724/editor.o
pcgram              0x4               build/pickit3/production/_ext/618058229/fontx2.o
g_end_addr          0x4               build/pickit3/production/_ext/1248472724/globalvars.o
lockkey             0x1               source/ps2keyboard.X.a(ps2keyboard.o)
blinkchar           0x1               build/pickit3/production/_ext/1248472724/keyinput.o
scancodebufp1       0x4               source/ps2keyboard.X.a(ps2keyboard.o)
gTimeAccDate        0x2               source/libsdfsio.a(FSIO.o)
keycodebufp1        0x4               source/ps2keyboard.X.a(ps2keyboard.o)
FSerrno             0x1               source/libsdfsio.a(FSIO.o)
g_temp              0x4               build/pickit3/production/_ext/1248472724/globalvars.o
g_gp                0x4               build/pickit3/production/_ext/1248472724/globalvars.o
g_valueisconst      0x1               build/pickit3/production/_ext/1248472724/globalvars.o
filebuf             0x4               build/pickit3/production/_ext/1248472724/editor.o
gTimeWrtTime        0x2               source/libsdfsio.a(FSIO.o)
cursorix            0x2               build/pickit3/production/_ext/1248472724/editor.o
g_label             0x4               build/pickit3/production/_ext/1248472724/linker.o

Microchip PIC32 Memory-Usage Report

kseg0 Program-Memory Usage
section                    address  length [bytes]      (dec)  Description
-------                 ----------  -------------------------  -----------
.rodata                 0x9d000000         0x6ee4       28388  Read-only const 
.text                   0x9d006ee4        0x1296c       76140  App's exec code 
.text.vfprintf          0x9d019850         0x1620        5664   
.text                   0x9d01ae70         0x3420       13344  App's exec code 
.rodata                 0x9d01e290         0x1000        4096  Read-only const 
.text                   0x9d01f290         0x2038        8248  App's exec code 
.rodata                 0x9d0212c8          0x810        2064  Read-only const 
.text                   0x9d021ad8         0x1ff4        8180  App's exec code 
.rodata                 0x9d023acc          0x538        1336  Read-only const 
.text                   0x9d024004          0x534        1332  App's exec code 
.dinit                  0x9d024538          0x510        1296   
.text                   0x9d024a48         0x15cc        5580  App's exec code 
.text.libm              0x9d026014          0x408        1032   
.text                   0x9d02641c          0x6e8        1768  App's exec code 
.text.__strtof          0x9d026b04          0x360         864   
.text.libm              0x9d026e64          0x658        1624   
.text.atan2f            0x9d0274bc          0x300         768   
.text.libm              0x9d0277bc          0x2b4         692   
.text.fpsubadd          0x9d027a70          0x278         632   
.text                   0x9d027ce8          0x274         628  App's exec code 
.text.libm              0x9d027f5c          0x274         628   
.text                   0x9d0281d0          0x254         596  App's exec code 
.text.libm              0x9d028424          0x248         584   
.text.fp32div           0x9d02866c          0x230         560   
.text.__floatdisf       0x9d02889c          0x220         544   
.rodata                 0x9d028abc          0x434        1076  Read-only const 
.text.libm              0x9d028ef0          0x208         520   
.text                   0x9d0290f8          0x204         516  App's exec code 
.rodata                 0x9d0292fc          0x1ec         492  Read-only const 
.text.libm              0x9d0294e8          0x1dc         476   
.rodata                 0x9d0296c4          0x394         916  Read-only const 
.text.fp32mul           0x9d029a58          0x1bc         444   
.text                   0x9d029c14          0x1ac         428  App's exec code 
.text.libm              0x9d029dc0          0x1ac         428   
.text                   0x9d029f6c          0x308         776  App's exec code 
.rodata                 0x9d02a274          0x160         352  Read-only const 
.text.powf              0x9d02a3d4          0x160         352   
.text.scale             0x9d02a534          0x150         336   
.text.OSCConfig         0x9d02a684          0x14c         332   
.text.libm              0x9d02a7d0          0x27c         636   
.text.dpcmp             0x9d02aa4c          0x12c         300   
.text.fputc             0x9d02ab78          0x128         296   
.text.fround            0x9d02aca0          0x120         288   
.text.libm              0x9d02adc0          0x234         564   
.text._flsbuf           0x9d02aff4          0x110         272   
.text.libm              0x9d02b104          0x10c         268   
.rodata                 0x9d02b210          0x104         260  Read-only const 
.text.__ldexpf          0x9d02b314          0x104         260   
.text._NVMOperation     0x9d02b418          0x100         256   
.text.dptofp            0x9d02b518          0x100         256   
.text.libm              0x9d02b618           0xfc         252   
.rodata                 0x9d02b714           0xf0         240  Read-only const 
.text.libm              0x9d02b804           0xf0         240   
.rodata                 0x9d02b8f4            0x4           4  Read-only const 
.rodata                 0x9d02b8f8           0xe8         232  Read-only const 
.text.general_exception 0x9d02b9e0           0xdc         220   
.text.libm              0x9d02babc           0xd4         212   
.text                   0x9d02bb90           0xd4         212  App's exec code 
.text.libm              0x9d02bc64           0xc4         196   
.text.log10f            0x9d02bd28           0xc0         192   
.text.logf              0x9d02bde8           0xc0         192   
.text.libm              0x9d02bea8           0xb4         180   
.text._mon_putc         0x9d02bf5c           0xb4         180   
.text.libm              0x9d02c010           0xb0         176   
.text.fptodp            0x9d02c0c0           0xac         172   
.text                   0x9d02c16c           0xa8         168  App's exec code 
.text.fpatan            0x9d02c214           0xa0         160   
.text.fpcmp             0x9d02c2b4           0x9c         156   
.text.write             0x9d02c350           0x88         136   
.text.libm              0x9d02c3d8           0x88         136   
.rodata                 0x9d02c460           0x80         128  Read-only const 
.text.fptoli            0x9d02c4e0           0x80         128   
.text.acosf             0x9d02c560           0x7c         124   
.text.asinf             0x9d02c5dc           0x7c         124   
.text.fptoul            0x9d02c658           0x7c         124   
.text.SoftReset         0x9d02c6d4           0x78         120   
.rodata                 0x9d02c74c           0x68         104  Read-only const 
.text.coshf             0x9d02c7b4           0x64         100   
.text.expf              0x9d02c818           0x64         100   
.text.sinhf             0x9d02c87c           0x64         100   
.text.OpenSPI2          0x9d02c8e0           0x60          96   
.text.sitofp            0x9d02c940           0x60          96   
.rodata                 0x9d02c9a0           0x58          88  Read-only const 
.text.vsnprintf         0x9d02c9f8           0x54          84   
.text.sqrtf             0x9d02ca4c           0x50          80   
.text.strncpy           0x9d02ca9c           0x50          80   
.text.main_entry        0x9d02caec           0x4c          76   
.text                   0x9d02cb38           0x4c          76  App's exec code 
.text._bootstrap_except 0x9d02cb84           0x48          72   
.text                   0x9d02cbcc           0x44          68  App's exec code 
.rodata                 0x9d02cc10           0x3c          60  Read-only const 
.text.INTEnableSystemMu 0x9d02cc4c           0x34          52   
.text.NVMWriteWord      0x9d02cc80           0x34          52   
.rodata                 0x9d02ccb4            0x4           4  Read-only const 
.rodata                 0x9d02ccb8           0x28          40  Read-only const 
.text.getcSPI2          0x9d02cce0           0x24          36   
.text.isinfl            0x9d02cd04           0x24          36   
.text.tolower           0x9d02cd28           0x24          36   
.text.toupper           0x9d02cd4c           0x24          36   
.text.snprintf          0x9d02cd70           0x24          36   
.text.INTRestoreInterru 0x9d02cd94           0x1c          28   
.text.finitel           0x9d02cdb0           0x1c          28   
.text.strtof            0x9d02cdcc           0x1c          28   
.rodata                 0x9d02cde8           0x18          24  Read-only const 
.text                   0x9d02ce00           0x18          24  App's exec code 
.rodata                 0x9d02ce18           0x18          24  Read-only const 
.text.fpfabs            0x9d02ce30           0x14          20   
.text.negsf2            0x9d02ce44           0x14          20   
.rodata                 0x9d02ce58           0x18          24  Read-only const 
.text.INTDisableInterru 0x9d02ce70            0x8           8   
.text.INTEnableInterrup 0x9d02ce78            0x8           8   
.text._on_reset         0x9d02ce80            0x8           8   
.text._on_bootstrap     0x9d02ce88            0x8           8   
.rodata                 0x9d02ce90            0x8           8  Read-only const 
.rodata                 0x9d02ce98            0x8           8  Read-only const 
      Total kseg0_program_mem used  :     0x2cea0      183968  71.3% of 0x3f000

kseg0 Boot-Memory Usage
section                    address  length [bytes]      (dec)  Description
-------                 ----------  -------------------------  -----------
         Total kseg0_boot_mem used  :           0           0  

Exception-Memory Usage 
section                    address  length [bytes]      (dec)  Description
-------                 ----------  -------------------------  -----------
.app_excpt              0x9d03f180           0x10          16  General-Exception 
.vector_6               0x9d03f2c0            0x8           8  Interrupt Vector 6 
.vector_8               0x9d03f300            0x8           8  Interrupt Vector 8 
.vector_10              0x9d03f340            0x8           8  Interrupt Vector 10 
.vector_14              0x9d03f3c0            0x8           8  Interrupt Vector 14 
.vector_16              0x9d03f400            0x8           8  Interrupt Vector 16 
.vector_20              0x9d03f480            0x8           8  Interrupt Vector 20 
.vector_34              0x9d03f640            0x8           8  Interrupt Vector 34 
          Total exception_mem used  :        0x48          72  1.8% of 0x1000

kseg1 Boot-Memory Usage
section                    address  length [bytes]      (dec)  Description
-------                 ----------  -------------------------  -----------
.reset                  0xbfc00000          0x1e8         488  Reset handler 
.bev_excpt              0xbfc00380           0x10          16  BEV-Exception 
         Total kseg1_boot_mem used  :       0x1f8         504  43.2% of 0x490
        --------------------------------------------------------------------------
         Total Program Memory used  :     0x2d0e0      184544  70.1% of 0x40490
        --------------------------------------------------------------------------


kseg1 Data-Memory Usage
section                    address  length [bytes]      (dec)  Description
-------                 ----------  -------------------------  -----------
.eh_frame               0xa0000000           0x30          48   
.sdata                  0xa0000030           0x1c          28  Small init data 
.sbss                   0xa000004c          0x220         544  Small uninit data 
.bss                    0xa000026c         0x16b4        5812  Uninitialized data 
.data                   0xa0001920          0x100         256  Initialized data 
.bss                    0xa0001a20           0xe0         224  Uninitialized data 
.data                   0xa0001b00          0x174         372  Initialized data 
.bss                    0xa0001c74           0x68         104  Uninitialized data 
.data                   0xa0001cdc           0x24          36  Initialized data 
.data.libm              0xa0001d00           0x20          32   
.data                   0xa0001d20           0x48          72  Initialized data 
.data.math_errhandling_ 0xa0001d68            0x4           4   
         Total kseg1_data_mem used  :      0x1d6c        7532  11.5% of 0x10000
        --------------------------------------------------------------------------
            Total Data Memory used  :      0x1d6c        7532  11.5% of 0x10000
        --------------------------------------------------------------------------


Dynamic Data-Memory Reservation
section                    address  length [bytes]      (dec)  Description
-------                 ----------  -------------------------  -----------
heap                    0xa0001d70           0x68         104  Reserved for heap 
stack                   0xa0001df0          0x600        1536  Reserved for stack 

        --------------------------------------------------------------------------

Discarded input sections

 .data          0x00000000        0x0 build/pickit3/production/_ext/1248472724/compiler.o
 .bss           0x00000000        0x0 build/pickit3/production/_ext/1248472724/compiler.o
 .text          0x00000000        0x0 build/pickit3/production/_ext/1248472724/debug.o
 .data          0x00000000        0x0 build/pickit3/production/_ext/1248472724/debug.o
 .bss           0x00000000        0x0 build/pickit3/production/_ext/1248472724/debug.o
 .reginfo       0x00000000       0x18 build/pickit3/production/_ext/1248472724/debug.o
 .text          0x00000000        0x8 build/pickit3/production/_ext/1248472724/document.o
 .data          0x00000000        0x0 build/pickit3/production/_ext/1248472724/document.o
 .bss           0x00000000        0x0 build/pickit3/production/_ext/1248472724/document.o
 .reginfo       0x00000000       0x18 build/pickit3/production/_ext/1248472724/document.o
 .data          0x00000000        0x0 build/pickit3/production/_ext/1248472724/editor.o
 .bss           0x00000000        0x0 build/pickit3/production/_ext/1248472724/editor.o
 .reginfo       0x00000000       0x18 build/pickit3/production/_ext/1248472724/editor.o
 .bss           0x00000000        0x0 build/pickit3/production/_ext/1248472724/error.o
 .reginfo       0x00000000       0x18 build/pickit3/production/_ext/1248472724/error.o
 .data          0x00000000        0x0 build/pickit3/production/_ext/1248472724/exception.o
 .bss           0x00000000        0x0 build/pickit3/production/_ext/1248472724/exception.o
 .reginfo       0x00000000       0x18 build/pickit3/production/_ext/1248472724/exception.o
 .data          0x00000000        0x0 build/pickit3/production/_ext/1248472724/file.o
 .bss           0x00000000        0x0 build/pickit3/production/_ext/1248472724/file.o
 .reginfo       0x00000000       0x18 build/pickit3/production/_ext/1248472724/file.o
 .data          0x00000000        0x0 build/pickit3/production/_ext/1248472724/float.o
 .bss           0x00000000        0x0 build/pickit3/production/_ext/1248472724/float.o
 .reginfo       0x00000000       0x18 build/pickit3/production/_ext/1248472724/float.o
 .data          0x00000000        0x0 build/pickit3/production/_ext/1248472724/function.o
 .bss           0x00000000        0x0 build/pickit3/production/_ext/1248472724/function.o
 .reginfo       0x00000000       0x18 build/pickit3/production/_ext/1248472724/function.o
 .text          0x00000000        0x0 build/pickit3/production/_ext/1248472724/globalvars.o
 .data          0x00000000        0x0 build/pickit3/production/_ext/1248472724/globalvars.o
 .bss           0x00000000        0x0 build/pickit3/production/_ext/1248472724/globalvars.o
 .reginfo       0x00000000       0x18 build/pickit3/production/_ext/1248472724/globalvars.o
 .data          0x00000000        0x0 build/pickit3/production/_ext/1248472724/keyinput.o
 .bss           0x00000000        0x0 build/pickit3/production/_ext/1248472724/keyinput.o
 .reginfo       0x00000000       0x18 build/pickit3/production/_ext/1248472724/keyinput.o
 .data          0x00000000        0x0 build/pickit3/production/_ext/1248472724/library.o
 .bss           0x00000000        0x0 build/pickit3/production/_ext/1248472724/library.o
 .reginfo       0x00000000       0x18 build/pickit3/production/_ext/1248472724/library.o
 .data          0x00000000        0x0 build/pickit3/production/_ext/1248472724/linker.o
 .bss           0x00000000        0x0 build/pickit3/production/_ext/1248472724/linker.o
 .reginfo       0x00000000       0x18 build/pickit3/production/_ext/1248472724/linker.o
 .data          0x00000000        0x0 build/pickit3/production/_ext/1248472724/main.o
 .bss           0x00000000        0x0 build/pickit3/production/_ext/1248472724/main.o
 .reginfo       0x00000000       0x18 build/pickit3/production/_ext/1248472724/main.o
 .data          0x00000000        0x0 build/pickit3/production/_ext/1248472724/memory.o
 .bss           0x00000000        0x0 build/pickit3/production/_ext/1248472724/memory.o
 .reginfo       0x00000000       0x18 build/pickit3/production/_ext/1248472724/memory.o
 .data          0x00000000        0x0 build/pickit3/production/_ext/1248472724/music.o
 .reginfo       0x00000000       0x18 build/pickit3/production/_ext/1248472724/music.o
 .data          0x00000000        0x0 build/pickit3/production/_ext/1248472724/operator.o
 .bss           0x00000000        0x0 build/pickit3/production/_ext/1248472724/operator.o
 .reginfo       0x00000000       0x18 build/pickit3/production/_ext/1248472724/operator.o
 .data          0x00000000        0x0 build/pickit3/production/_ext/1248472724/run.o
 .bss           0x00000000        0x0 build/pickit3/production/_ext/1248472724/run.o
 .reginfo       0x00000000       0x18 build/pickit3/production/_ext/1248472724/run.o
 .data          0x00000000        0x0 build/pickit3/production/_ext/1248472724/statement.o
 .bss           0x00000000        0x0 build/pickit3/production/_ext/1248472724/statement.o
 .reginfo       0x00000000       0x18 build/pickit3/production/_ext/1248472724/statement.o
 .data          0x00000000        0x0 build/pickit3/production/_ext/1248472724/string.o
 .bss           0x00000000        0x0 build/pickit3/production/_ext/1248472724/string.o
 .reginfo       0x00000000       0x18 build/pickit3/production/_ext/1248472724/string.o
 .data          0x00000000        0x0 build/pickit3/production/_ext/1248472724/value.o
 .bss           0x00000000        0x0 build/pickit3/production/_ext/1248472724/value.o
 .reginfo       0x00000000       0x18 build/pickit3/production/_ext/1248472724/value.o
 .text          0x00000000        0x0 build/pickit3/production/_ext/618058229/crt0.o
 .data          0x00000000        0x0 build/pickit3/production/_ext/618058229/crt0.o
 .bss           0x00000000        0x0 build/pickit3/production/_ext/618058229/crt0.o
 .reginfo       0x00000000       0x18 build/pickit3/production/_ext/618058229/crt0.o
 .data          0x00000000        0x0 build/pickit3/production/_ext/618058229/fontx2.o
 .bss           0x00000000        0x0 build/pickit3/production/_ext/618058229/fontx2.o
 .reginfo       0x00000000       0x18 build/pickit3/production/_ext/618058229/fontx2.o
 .data          0x00000000        0x0 source/lib_videoout_machikania.X.a(videoout.o)
 .bss           0x00000000        0x0 source/lib_videoout_machikania.X.a(videoout.o)
 .reginfo       0x00000000       0x18 source/lib_videoout_machikania.X.a(videoout.o)
 .data          0x00000000        0x0 source/lib_videoout_machikania.X.a(textvideolib.o)
 .bss           0x00000000        0x0 source/lib_videoout_machikania.X.a(textvideolib.o)
 .reginfo       0x00000000       0x18 source/lib_videoout_machikania.X.a(textvideolib.o)
 .data          0x00000000        0x0 source/lib_videoout_machikania.X.a(graphvideolib.o)
 .bss           0x00000000        0x0 source/lib_videoout_machikania.X.a(graphvideolib.o)
 .reginfo       0x00000000       0x18 source/lib_videoout_machikania.X.a(graphvideolib.o)
 .data          0x00000000        0x0 source/ps2keyboard.X.a(ps2keyboard.o)
 .bss           0x00000000        0x0 source/ps2keyboard.X.a(ps2keyboard.o)
 .reginfo       0x00000000       0x18 source/ps2keyboard.X.a(ps2keyboard.o)
 .data          0x00000000        0x0 source/libsdfsio.a(FSIO.o)
 .bss           0x00000000        0x0 source/libsdfsio.a(FSIO.o)
 .reginfo       0x00000000       0x18 source/libsdfsio.a(FSIO.o)
 .data          0x00000000        0x0 source/libsdfsio.a(SD-SPI.o)
 .reginfo       0x00000000       0x18 source/libsdfsio.a(SD-SPI.o)
 .text          0x00000000        0x0 /opt/microchip/xc32/v1.32/bin/bin/../../lib/gcc/pic32mx/4.5.2/../../../../pic32mx/lib/./proc/32MX270F256B/processor.o
 .data          0x00000000        0x0 /opt/microchip/xc32/v1.32/bin/bin/../../lib/gcc/pic32mx/4.5.2/../../../../pic32mx/lib/./proc/32MX270F256B/processor.o
 .bss           0x00000000        0x0 /opt/microchip/xc32/v1.32/bin/bin/../../lib/gcc/pic32mx/4.5.2/../../../../pic32mx/lib/./proc/32MX270F256B/processor.o
 .reginfo       0x00000000       0x18 /opt/microchip/xc32/v1.32/bin/bin/../../lib/gcc/pic32mx/4.5.2/../../../../pic32mx/lib/./proc/32MX270F256B/processor.o
 .text          0x00000000        0x0 /opt/microchip/xc32/v1.32/bin/bin/../../lib/gcc/pic32mx/4.5.2/../../../../pic32mx/lib/size/libmchp_peripheral_32MX150F128B.a(soft_reset_lib.o)
 .data          0x00000000        0x0 /opt/microchip/xc32/v1.32/bin/bin/../../lib/gcc/pic32mx/4.5.2/../../../../pic32mx/lib/size/libmchp_peripheral_32MX150F128B.a(soft_reset_lib.o)
 .bss           0x00000000        0x0 /opt/microchip/xc32/v1.32/bin/bin/../../lib/gcc/pic32mx/4.5.2/../../../../pic32mx/lib/size/libmchp_peripheral_32MX150F128B.a(soft_reset_lib.o)
 .reginfo       0x00000000       0x18 /opt/microchip/xc32/v1.32/bin/bin/../../lib/gcc/pic32mx/4.5.2/../../../../pic32mx/lib/size/libmchp_peripheral_32MX150F128B.a(soft_reset_lib.o)
 .pdr           0x00000000       0x20 /opt/microchip/xc32/v1.32/bin/bin/../../lib/gcc/pic32mx/4.5.2/../../../../pic32mx/lib/size/libmchp_peripheral_32MX150F128B.a(soft_reset_lib.o)
 .text          0x00000000        0x0 /opt/microchip/xc32/v1.32/bin/bin/../../lib/gcc/pic32mx/4.5.2/../../../../pic32mx/lib/size/libmchp_peripheral_32MX150F128B.a(osc_config_lib.o)
 .data          0x00000000        0x0 /opt/microchip/xc32/v1.32/bin/bin/../../lib/gcc/pic32mx/4.5.2/../../../../pic32mx/lib/size/libmchp_peripheral_32MX150F128B.a(osc_config_lib.o)
 .bss           0x00000000        0x0 /opt/microchip/xc32/v1.32/bin/bin/../../lib/gcc/pic32mx/4.5.2/../../../../pic32mx/lib/size/libmchp_peripheral_32MX150F128B.a(osc_config_lib.o)
 .reginfo       0x00000000       0x18 /opt/microchip/xc32/v1.32/bin/bin/../../lib/gcc/pic32mx/4.5.2/../../../../pic32mx/lib/size/libmchp_peripheral_32MX150F128B.a(osc_config_lib.o)
 .pdr           0x00000000       0x20 /opt/microchip/xc32/v1.32/bin/bin/../../lib/gcc/pic32mx/4.5.2/../../../../pic32mx/lib/size/libmchp_peripheral_32MX150F128B.a(osc_config_lib.o)
 .text          0x00000000        0x0 /opt/microchip/xc32/v1.32/bin/bin/../../lib/gcc/pic32mx/4.5.2/../../../../pic32mx/lib/size/libmchp_peripheral_32MX150F128B.a(int_disable_interrupts_lib.o)
 .data          0x00000000        0x0 /opt/microchip/xc32/v1.32/bin/bin/../../lib/gcc/pic32mx/4.5.2/../../../../pic32mx/lib/size/libmchp_peripheral_32MX150F128B.a(int_disable_interrupts_lib.o)
 .bss           0x00000000        0x0 /opt/microchip/xc32/v1.32/bin/bin/../../lib/gcc/pic32mx/4.5.2/../../../../pic32mx/lib/size/libmchp_peripheral_32MX150F128B.a(int_disable_interrupts_lib.o)
 .reginfo       0x00000000       0x18 /opt/microchip/xc32/v1.32/bin/bin/../../lib/gcc/pic32mx/4.5.2/../../../../pic32mx/lib/size/libmchp_peripheral_32MX150F128B.a(int_disable_interrupts_lib.o)
 .pdr           0x00000000       0x20 /opt/microchip/xc32/v1.32/bin/bin/../../lib/gcc/pic32mx/4.5.2/../../../../pic32mx/lib/size/libmchp_peripheral_32MX150F128B.a(int_disable_interrupts_lib.o)
 .text          0x00000000        0x0 /opt/microchip/xc32/v1.32/bin/bin/../../lib/gcc/pic32mx/4.5.2/../../../../pic32mx/lib/size/libmchp_peripheral_32MX150F128B.a(int_restore_interrupts_lib.o)
 .data          0x00000000        0x0 /opt/microchip/xc32/v1.32/bin/bin/../../lib/gcc/pic32mx/4.5.2/../../../../pic32mx/lib/size/libmchp_peripheral_32MX150F128B.a(int_restore_interrupts_lib.o)
 .bss           0x00000000        0x0 /opt/microchip/xc32/v1.32/bin/bin/../../lib/gcc/pic32mx/4.5.2/../../../../pic32mx/lib/size/libmchp_peripheral_32MX150F128B.a(int_restore_interrupts_lib.o)
 .reginfo       0x00000000       0x18 /opt/microchip/xc32/v1.32/bin/bin/../../lib/gcc/pic32mx/4.5.2/../../../../pic32mx/lib/size/libmchp_peripheral_32MX150F128B.a(int_restore_interrupts_lib.o)
 .pdr           0x00000000       0x20 /opt/microchip/xc32/v1.32/bin/bin/../../lib/gcc/pic32mx/4.5.2/../../../../pic32mx/lib/size/libmchp_peripheral_32MX150F128B.a(int_restore_interrupts_lib.o)
 .text          0x00000000        0x0 /opt/microchip/xc32/v1.32/bin/bin/../../lib/gcc/pic32mx/4.5.2/../../../../pic32mx/lib/size/libmchp_peripheral_32MX150F128B.a(int_enable_mv_int_lib.o)
 .data          0x00000000        0x0 /opt/microchip/xc32/v1.32/bin/bin/../../lib/gcc/pic32mx/4.5.2/../../../../pic32mx/lib/size/libmchp_peripheral_32MX150F128B.a(int_enable_mv_int_lib.o)
 .bss           0x00000000        0x0 /opt/microchip/xc32/v1.32/bin/bin/../../lib/gcc/pic32mx/4.5.2/../../../../pic32mx/lib/size/libmchp_peripheral_32MX150F128B.a(int_enable_mv_int_lib.o)
 .reginfo       0x00000000       0x18 /opt/microchip/xc32/v1.32/bin/bin/../../lib/gcc/pic32mx/4.5.2/../../../../pic32mx/lib/size/libmchp_peripheral_32MX150F128B.a(int_enable_mv_int_lib.o)
 .pdr           0x00000000       0x20 /opt/microchip/xc32/v1.32/bin/bin/../../lib/gcc/pic32mx/4.5.2/../../../../pic32mx/lib/size/libmchp_peripheral_32MX150F128B.a(int_enable_mv_int_lib.o)
 .text          0x00000000        0x0 /opt/microchip/xc32/v1.32/bin/bin/../../lib/gcc/pic32mx/4.5.2/../../../../pic32mx/lib/size/libmchp_peripheral_32MX150F128B.a(spi_getc_spi2_lib_legacy.o)
 .data          0x00000000        0x0 /opt/microchip/xc32/v1.32/bin/bin/../../lib/gcc/pic32mx/4.5.2/../../../../pic32mx/lib/size/libmchp_peripheral_32MX150F128B.a(spi_getc_spi2_lib_legacy.o)
 .bss           0x00000000        0x0 /opt/microchip/xc32/v1.32/bin/bin/../../lib/gcc/pic32mx/4.5.2/../../../../pic32mx/lib/size/libmchp_peripheral_32MX150F128B.a(spi_getc_spi2_lib_legacy.o)
 .reginfo       0x00000000       0x18 /opt/microchip/xc32/v1.32/bin/bin/../../lib/gcc/pic32mx/4.5.2/../../../../pic32mx/lib/size/libmchp_peripheral_32MX150F128B.a(spi_getc_spi2_lib_legacy.o)
 .pdr           0x00000000       0x20 /opt/microchip/xc32/v1.32/bin/bin/../../lib/gcc/pic32mx/4.5.2/../../../../pic32mx/lib/size/libmchp_peripheral_32MX150F128B.a(spi_getc_spi2_lib_legacy.o)
 .text          0x00000000        0x0 /opt/microchip/xc32/v1.32/bin/bin/../../lib/gcc/pic32mx/4.5.2/../../../../pic32mx/lib/size/libmchp_peripheral_32MX150F128B.a(spi_open_spi2_lib_legacy.o)
 .data          0x00000000        0x0 /opt/microchip/xc32/v1.32/bin/bin/../../lib/gcc/pic32mx/4.5.2/../../../../pic32mx/lib/size/libmchp_peripheral_32MX150F128B.a(spi_open_spi2_lib_legacy.o)
 .bss           0x00000000        0x0 /opt/microchip/xc32/v1.32/bin/bin/../../lib/gcc/pic32mx/4.5.2/../../../../pic32mx/lib/size/libmchp_peripheral_32MX150F128B.a(spi_open_spi2_lib_legacy.o)
 .reginfo       0x00000000       0x18 /opt/microchip/xc32/v1.32/bin/bin/../../lib/gcc/pic32mx/4.5.2/../../../../pic32mx/lib/size/libmchp_peripheral_32MX150F128B.a(spi_open_spi2_lib_legacy.o)
 .pdr           0x00000000       0x20 /opt/microchip/xc32/v1.32/bin/bin/../../lib/gcc/pic32mx/4.5.2/../../../../pic32mx/lib/size/libmchp_peripheral_32MX150F128B.a(spi_open_spi2_lib_legacy.o)
 .text          0x00000000        0x0 /opt/microchip/xc32/v1.32/bin/bin/../../lib/gcc/pic32mx/4.5.2/../../../../pic32mx/lib/size/libmchp_peripheral_32MX150F128B.a(spi_brg_tbl_lib_legacy.o)
 .data          0x00000000        0x0 /opt/microchip/xc32/v1.32/bin/bin/../../lib/gcc/pic32mx/4.5.2/../../../../pic32mx/lib/size/libmchp_peripheral_32MX150F128B.a(spi_brg_tbl_lib_legacy.o)
 .bss           0x00000000        0x0 /opt/microchip/xc32/v1.32/bin/bin/../../lib/gcc/pic32mx/4.5.2/../../../../pic32mx/lib/size/libmchp_peripheral_32MX150F128B.a(spi_brg_tbl_lib_legacy.o)
 .reginfo       0x00000000       0x18 /opt/microchip/xc32/v1.32/bin/bin/../../lib/gcc/pic32mx/4.5.2/../../../../pic32mx/lib/size/libmchp_peripheral_32MX150F128B.a(spi_brg_tbl_lib_legacy.o)
 .pdr           0x00000000        0x0 /opt/microchip/xc32/v1.32/bin/bin/../../lib/gcc/pic32mx/4.5.2/../../../../pic32mx/lib/size/libmchp_peripheral_32MX150F128B.a(spi_brg_tbl_lib_legacy.o)
 .text          0x00000000        0x0 /opt/microchip/xc32/v1.32/bin/bin/../../lib/gcc/pic32mx/4.5.2/../../../../pic32mx/lib/size/libmchp_peripheral_32MX150F128B.a(nvm_write_word_lib.o)
 .data          0x00000000        0x0 /opt/microchip/xc32/v1.32/bin/bin/../../lib/gcc/pic32mx/4.5.2/../../../../pic32mx/lib/size/libmchp_peripheral_32MX150F128B.a(nvm_write_word_lib.o)
 .bss           0x00000000        0x0 /opt/microchip/xc32/v1.32/bin/bin/../../lib/gcc/pic32mx/4.5.2/../../../../pic32mx/lib/size/libmchp_peripheral_32MX150F128B.a(nvm_write_word_lib.o)
 .reginfo       0x00000000       0x18 /opt/microchip/xc32/v1.32/bin/bin/../../lib/gcc/pic32mx/4.5.2/../../../../pic32mx/lib/size/libmchp_peripheral_32MX150F128B.a(nvm_write_word_lib.o)
 .pdr           0x00000000       0x20 /opt/microchip/xc32/v1.32/bin/bin/../../lib/gcc/pic32mx/4.5.2/../../../../pic32mx/lib/size/libmchp_peripheral_32MX150F128B.a(nvm_write_word_lib.o)
 .text          0x00000000        0x0 /opt/microchip/xc32/v1.32/bin/bin/../../lib/gcc/pic32mx/4.5.2/../../../../pic32mx/lib/size/libmchp_peripheral_32MX150F128B.a(int_enable_interrupts_lib.o)
 .data          0x00000000        0x0 /opt/microchip/xc32/v1.32/bin/bin/../../lib/gcc/pic32mx/4.5.2/../../../../pic32mx/lib/size/libmchp_peripheral_32MX150F128B.a(int_enable_interrupts_lib.o)
 .bss           0x00000000        0x0 /opt/microchip/xc32/v1.32/bin/bin/../../lib/gcc/pic32mx/4.5.2/../../../../pic32mx/lib/size/libmchp_peripheral_32MX150F128B.a(int_enable_interrupts_lib.o)
 .reginfo       0x00000000       0x18 /opt/microchip/xc32/v1.32/bin/bin/../../lib/gcc/pic32mx/4.5.2/../../../../pic32mx/lib/size/libmchp_peripheral_32MX150F128B.a(int_enable_interrupts_lib.o)
 .pdr           0x00000000       0x20 /opt/microchip/xc32/v1.32/bin/bin/../../lib/gcc/pic32mx/4.5.2/../../../../pic32mx/lib/size/libmchp_peripheral_32MX150F128B.a(int_enable_interrupts_lib.o)
 .text          0x00000000        0x0 /opt/microchip/xc32/v1.32/bin/bin/../../lib/gcc/pic32mx/4.5.2/../../../../pic32mx/lib/size/libmchp_peripheral_32MX150F128B.a(nvm_operation_lib.o)
 .data          0x00000000        0x0 /opt/microchip/xc32/v1.32/bin/bin/../../lib/gcc/pic32mx/4.5.2/../../../../pic32mx/lib/size/libmchp_peripheral_32MX150F128B.a(nvm_operation_lib.o)
 .bss           0x00000000        0x0 /opt/microchip/xc32/v1.32/bin/bin/../../lib/gcc/pic32mx/4.5.2/../../../../pic32mx/lib/size/libmchp_peripheral_32MX150F128B.a(nvm_operation_lib.o)
 .reginfo       0x00000000       0x18 /opt/microchip/xc32/v1.32/bin/bin/../../lib/gcc/pic32mx/4.5.2/../../../../pic32mx/lib/size/libmchp_peripheral_32MX150F128B.a(nvm_operation_lib.o)
 .pdr           0x00000000       0x20 /opt/microchip/xc32/v1.32/bin/bin/../../lib/gcc/pic32mx/4.5.2/../../../../pic32mx/lib/size/libmchp_peripheral_32MX150F128B.a(nvm_operation_lib.o)
 .text          0x00000000        0x0 /opt/microchip/xc32/v1.32/bin/bin/../../lib/gcc/pic32mx/4.5.2/../../../../pic32mx/lib/size/libm.a(fp32div.o)
 .data          0x00000000        0x0 /opt/microchip/xc32/v1.32/bin/bin/../../lib/gcc/pic32mx/4.5.2/../../../../pic32mx/lib/size/libm.a(fp32div.o)
 .bss           0x00000000        0x0 /opt/microchip/xc32/v1.32/bin/bin/../../lib/gcc/pic32mx/4.5.2/../../../../pic32mx/lib/size/libm.a(fp32div.o)
 .reginfo       0x00000000       0x18 /opt/microchip/xc32/v1.32/bin/bin/../../lib/gcc/pic32mx/4.5.2/../../../../pic32mx/lib/size/libm.a(fp32div.o)
 .text          0x00000000        0x0 /opt/microchip/xc32/v1.32/bin/bin/../../lib/gcc/pic32mx/4.5.2/../../../../pic32mx/lib/size/libm.a(fp32mul.o)
 .data          0x00000000        0x0 /opt/microchip/xc32/v1.32/bin/bin/../../lib/gcc/pic32mx/4.5.2/../../../../pic32mx/lib/size/libm.a(fp32mul.o)
 .bss           0x00000000        0x0 /opt/microchip/xc32/v1.32/bin/bin/../../lib/gcc/pic32mx/4.5.2/../../../../pic32mx/lib/size/libm.a(fp32mul.o)
 .reginfo       0x00000000       0x18 /opt/microchip/xc32/v1.32/bin/bin/../../lib/gcc/pic32mx/4.5.2/../../../../pic32mx/lib/size/libm.a(fp32mul.o)
 .text          0x00000000        0x0 /opt/microchip/xc32/v1.32/bin/bin/../../lib/gcc/pic32mx/4.5.2/../../../../pic32mx/lib/size/libm.a(fp32subadd.o)
 .data          0x00000000        0x0 /opt/microchip/xc32/v1.32/bin/bin/../../lib/gcc/pic32mx/4.5.2/../../../../pic32mx/lib/size/libm.a(fp32subadd.o)
 .bss           0x00000000        0x0 /opt/microchip/xc32/v1.32/bin/bin/../../lib/gcc/pic32mx/4.5.2/../../../../pic32mx/lib/size/libm.a(fp32subadd.o)
 .reginfo       0x00000000       0x18 /opt/microchip/xc32/v1.32/bin/bin/../../lib/gcc/pic32mx/4.5.2/../../../../pic32mx/lib/size/libm.a(fp32subadd.o)
 .text          0x00000000        0x0 /opt/microchip/xc32/v1.32/bin/bin/../../lib/gcc/pic32mx/4.5.2/../../../../pic32mx/lib/size/libm.a(fpatan.o)
 .data          0x00000000        0x0 /opt/microchip/xc32/v1.32/bin/bin/../../lib/gcc/pic32mx/4.5.2/../../../../pic32mx/lib/size/libm.a(fpatan.o)
 .bss           0x00000000        0x0 /opt/microchip/xc32/v1.32/bin/bin/../../lib/gcc/pic32mx/4.5.2/../../../../pic32mx/lib/size/libm.a(fpatan.o)
 .reginfo       0x00000000       0x18 /opt/microchip/xc32/v1.32/bin/bin/../../lib/gcc/pic32mx/4.5.2/../../../../pic32mx/lib/size/libm.a(fpatan.o)
 .text          0x00000000        0x0 /opt/microchip/xc32/v1.32/bin/bin/../../lib/gcc/pic32mx/4.5.2/../../../../pic32mx/lib/size/libm.a(fpceil32.o)
 .data          0x00000000        0x0 /opt/microchip/xc32/v1.32/bin/bin/../../lib/gcc/pic32mx/4.5.2/../../../../pic32mx/lib/size/libm.a(fpceil32.o)
 .bss           0x00000000        0x0 /opt/microchip/xc32/v1.32/bin/bin/../../lib/gcc/pic32mx/4.5.2/../../../../pic32mx/lib/size/libm.a(fpceil32.o)
 .reginfo       0x00000000       0x18 /opt/microchip/xc32/v1.32/bin/bin/../../lib/gcc/pic32mx/4.5.2/../../../../pic32mx/lib/size/libm.a(fpceil32.o)
 .text          0x00000000        0x0 /opt/microchip/xc32/v1.32/bin/bin/../../lib/gcc/pic32mx/4.5.2/../../../../pic32mx/lib/size/libm.a(fpcmp.o)
 .data          0x00000000        0x0 /opt/microchip/xc32/v1.32/bin/bin/../../lib/gcc/pic32mx/4.5.2/../../../../pic32mx/lib/size/libm.a(fpcmp.o)
 .bss           0x00000000        0x0 /opt/microchip/xc32/v1.32/bin/bin/../../lib/gcc/pic32mx/4.5.2/../../../../pic32mx/lib/size/libm.a(fpcmp.o)
 .reginfo       0x00000000       0x18 /opt/microchip/xc32/v1.32/bin/bin/../../lib/gcc/pic32mx/4.5.2/../../../../pic32mx/lib/size/libm.a(fpcmp.o)
 .text          0x00000000        0x0 /opt/microchip/xc32/v1.32/bin/bin/../../lib/gcc/pic32mx/4.5.2/../../../../pic32mx/lib/size/libm.a(fpcos32.o)
 .data          0x00000000        0x0 /opt/microchip/xc32/v1.32/bin/bin/../../lib/gcc/pic32mx/4.5.2/../../../../pic32mx/lib/size/libm.a(fpcos32.o)
 .bss           0x00000000        0x0 /opt/microchip/xc32/v1.32/bin/bin/../../lib/gcc/pic32mx/4.5.2/../../../../pic32mx/lib/size/libm.a(fpcos32.o)
 .reginfo       0x00000000       0x18 /opt/microchip/xc32/v1.32/bin/bin/../../lib/gcc/pic32mx/4.5.2/../../../../pic32mx/lib/size/libm.a(fpcos32.o)
 .text          0x00000000        0x0 /opt/microchip/xc32/v1.32/bin/bin/../../lib/gcc/pic32mx/4.5.2/../../../../pic32mx/lib/size/libm.a(fpexatan.o)
 .bss           0x00000000        0x0 /opt/microchip/xc32/v1.32/bin/bin/../../lib/gcc/pic32mx/4.5.2/../../../../pic32mx/lib/size/libm.a(fpexatan.o)
 .reginfo       0x00000000       0x18 /opt/microchip/xc32/v1.32/bin/bin/../../lib/gcc/pic32mx/4.5.2/../../../../pic32mx/lib/size/libm.a(fpexatan.o)
 .text.fpexatan
                0x00000000        0x0 /opt/microchip/xc32/v1.32/bin/bin/../../lib/gcc/pic32mx/4.5.2/../../../../pic32mx/lib/size/libm.a(fpexatan.o)
 .text          0x00000000        0x0 /opt/microchip/xc32/v1.32/bin/bin/../../lib/gcc/pic32mx/4.5.2/../../../../pic32mx/lib/size/libm.a(fpfloo32.o)
 .data          0x00000000        0x0 /opt/microchip/xc32/v1.32/bin/bin/../../lib/gcc/pic32mx/4.5.2/../../../../pic32mx/lib/size/libm.a(fpfloo32.o)
 .bss           0x00000000        0x0 /opt/microchip/xc32/v1.32/bin/bin/../../lib/gcc/pic32mx/4.5.2/../../../../pic32mx/lib/size/libm.a(fpfloo32.o)
 .reginfo       0x00000000       0x18 /opt/microchip/xc32/v1.32/bin/bin/../../lib/gcc/pic32mx/4.5.2/../../../../pic32mx/lib/size/libm.a(fpfloo32.o)
 .text          0x00000000        0x0 /opt/microchip/xc32/v1.32/bin/bin/../../lib/gcc/pic32mx/4.5.2/../../../../pic32mx/lib/size/libm.a(fpfmod.o)
 .data          0x00000000        0x0 /opt/microchip/xc32/v1.32/bin/bin/../../lib/gcc/pic32mx/4.5.2/../../../../pic32mx/lib/size/libm.a(fpfmod.o)
 .bss           0x00000000        0x0 /opt/microchip/xc32/v1.32/bin/bin/../../lib/gcc/pic32mx/4.5.2/../../../../pic32mx/lib/size/libm.a(fpfmod.o)
 .reginfo       0x00000000       0x18 /opt/microchip/xc32/v1.32/bin/bin/../../lib/gcc/pic32mx/4.5.2/../../../../pic32mx/lib/size/libm.a(fpfmod.o)
 .text          0x00000000        0x0 /opt/microchip/xc32/v1.32/bin/bin/../../lib/gcc/pic32mx/4.5.2/../../../../pic32mx/lib/size/libm.a(fpmodf.o)
 .data          0x00000000        0x0 /opt/microchip/xc32/v1.32/bin/bin/../../lib/gcc/pic32mx/4.5.2/../../../../pic32mx/lib/size/libm.a(fpmodf.o)
 .bss           0x00000000        0x0 /opt/microchip/xc32/v1.32/bin/bin/../../lib/gcc/pic32mx/4.5.2/../../../../pic32mx/lib/size/libm.a(fpmodf.o)
 .reginfo       0x00000000       0x18 /opt/microchip/xc32/v1.32/bin/bin/../../lib/gcc/pic32mx/4.5.2/../../../../pic32mx/lib/size/libm.a(fpmodf.o)
 .text          0x00000000        0x0 /opt/microchip/xc32/v1.32/bin/bin/../../lib/gcc/pic32mx/4.5.2/../../../../pic32mx/lib/size/libm.a(fpreduct32.o)
 .data          0x00000000        0x0 /opt/microchip/xc32/v1.32/bin/bin/../../lib/gcc/pic32mx/4.5.2/../../../../pic32mx/lib/size/libm.a(fpreduct32.o)
 .bss           0x00000000        0x0 /opt/microchip/xc32/v1.32/bin/bin/../../lib/gcc/pic32mx/4.5.2/../../../../pic32mx/lib/size/libm.a(fpreduct32.o)
 .reginfo       0x00000000       0x18 /opt/microchip/xc32/v1.32/bin/bin/../../lib/gcc/pic32mx/4.5.2/../../../../pic32mx/lib/size/libm.a(fpreduct32.o)
 .text          0x00000000        0x0 /opt/microchip/xc32/v1.32/bin/bin/../../lib/gcc/pic32mx/4.5.2/../../../../pic32mx/lib/size/libm.a(fpsin32.o)
 .data          0x00000000        0x0 /opt/microchip/xc32/v1.32/bin/bin/../../lib/gcc/pic32mx/4.5.2/../../../../pic32mx/lib/size/libm.a(fpsin32.o)
 .bss           0x00000000        0x0 /opt/microchip/xc32/v1.32/bin/bin/../../lib/gcc/pic32mx/4.5.2/../../../../pic32mx/lib/size/libm.a(fpsin32.o)
 .reginfo       0x00000000       0x18 /opt/microchip/xc32/v1.32/bin/bin/../../lib/gcc/pic32mx/4.5.2/../../../../pic32mx/lib/size/libm.a(fpsin32.o)
 .text          0x00000000        0x0 /opt/microchip/xc32/v1.32/bin/bin/../../lib/gcc/pic32mx/4.5.2/../../../../pic32mx/lib/size/libm.a(fpexsqrt32.o)
 .data          0x00000000        0x0 /opt/microchip/xc32/v1.32/bin/bin/../../lib/gcc/pic32mx/4.5.2/../../../../pic32mx/lib/size/libm.a(fpexsqrt32.o)
 .bss           0x00000000        0x0 /opt/microchip/xc32/v1.32/bin/bin/../../lib/gcc/pic32mx/4.5.2/../../../../pic32mx/lib/size/libm.a(fpexsqrt32.o)
 .reginfo       0x00000000       0x18 /opt/microchip/xc32/v1.32/bin/bin/../../lib/gcc/pic32mx/4.5.2/../../../../pic32mx/lib/size/libm.a(fpexsqrt32.o)
 .bss           0x00000000        0x0 /opt/microchip/xc32/v1.32/bin/bin/../../lib/gcc/pic32mx/4.5.2/../../../../pic32mx/lib/size/libm.a(fptan32.o)
 .reginfo       0x00000000       0x18 /opt/microchip/xc32/v1.32/bin/bin/../../lib/gcc/pic32mx/4.5.2/../../../../pic32mx/lib/size/libm.a(fptan32.o)
 .text.libm     0x00000000        0x0 /opt/microchip/xc32/v1.32/bin/bin/../../lib/gcc/pic32mx/4.5.2/../../../../pic32mx/lib/size/libm.a(fptan32.o)
 .text          0x00000000        0x0 /opt/microchip/xc32/v1.32/bin/bin/../../lib/gcc/pic32mx/4.5.2/../../../../pic32mx/lib/size/libm.a(fptanh.o)
 .data          0x00000000        0x0 /opt/microchip/xc32/v1.32/bin/bin/../../lib/gcc/pic32mx/4.5.2/../../../../pic32mx/lib/size/libm.a(fptanh.o)
 .bss           0x00000000        0x0 /opt/microchip/xc32/v1.32/bin/bin/../../lib/gcc/pic32mx/4.5.2/../../../../pic32mx/lib/size/libm.a(fptanh.o)
 .reginfo       0x00000000       0x18 /opt/microchip/xc32/v1.32/bin/bin/../../lib/gcc/pic32mx/4.5.2/../../../../pic32mx/lib/size/libm.a(fptanh.o)
 .text          0x00000000        0x0 /opt/microchip/xc32/v1.32/bin/bin/../../lib/gcc/pic32mx/4.5.2/../../../../pic32mx/lib/size/libm.a(fptoli.o)
 .data          0x00000000        0x0 /opt/microchip/xc32/v1.32/bin/bin/../../lib/gcc/pic32mx/4.5.2/../../../../pic32mx/lib/size/libm.a(fptoli.o)
 .bss           0x00000000        0x0 /opt/microchip/xc32/v1.32/bin/bin/../../lib/gcc/pic32mx/4.5.2/../../../../pic32mx/lib/size/libm.a(fptoli.o)
 .reginfo       0x00000000       0x18 /opt/microchip/xc32/v1.32/bin/bin/../../lib/gcc/pic32mx/4.5.2/../../../../pic32mx/lib/size/libm.a(fptoli.o)
 .text          0x00000000        0x0 /opt/microchip/xc32/v1.32/bin/bin/../../lib/gcc/pic32mx/4.5.2/../../../../pic32mx/lib/size/libm.a(sincof32.o)
 .bss           0x00000000        0x0 /opt/microchip/xc32/v1.32/bin/bin/../../lib/gcc/pic32mx/4.5.2/../../../../pic32mx/lib/size/libm.a(sincof32.o)
 .reginfo       0x00000000       0x18 /opt/microchip/xc32/v1.32/bin/bin/../../lib/gcc/pic32mx/4.5.2/../../../../pic32mx/lib/size/libm.a(sincof32.o)
 .text          0x00000000        0x0 /opt/microchip/xc32/v1.32/bin/bin/../../lib/gcc/pic32mx/4.5.2/../../../../pic32mx/lib/size/libm.a(sitofp.o)
 .data          0x00000000        0x0 /opt/microchip/xc32/v1.32/bin/bin/../../lib/gcc/pic32mx/4.5.2/../../../../pic32mx/lib/size/libm.a(sitofp.o)
 .bss           0x00000000        0x0 /opt/microchip/xc32/v1.32/bin/bin/../../lib/gcc/pic32mx/4.5.2/../../../../pic32mx/lib/size/libm.a(sitofp.o)
 .reginfo       0x00000000       0x18 /opt/microchip/xc32/v1.32/bin/bin/../../lib/gcc/pic32mx/4.5.2/../../../../pic32mx/lib/size/libm.a(sitofp.o)
 .text          0x00000000        0x0 /opt/microchip/xc32/v1.32/bin/bin/../../lib/gcc/pic32mx/4.5.2/../../../../pic32mx/lib/size/libm.a(w_acosf.o)
 .data          0x00000000        0x0 /opt/microchip/xc32/v1.32/bin/bin/../../lib/gcc/pic32mx/4.5.2/../../../../pic32mx/lib/size/libm.a(w_acosf.o)
 .bss           0x00000000        0x0 /opt/microchip/xc32/v1.32/bin/bin/../../lib/gcc/pic32mx/4.5.2/../../../../pic32mx/lib/size/libm.a(w_acosf.o)
 .reginfo       0x00000000       0x18 /opt/microchip/xc32/v1.32/bin/bin/../../lib/gcc/pic32mx/4.5.2/../../../../pic32mx/lib/size/libm.a(w_acosf.o)
 .text          0x00000000        0x0 /opt/microchip/xc32/v1.32/bin/bin/../../lib/gcc/pic32mx/4.5.2/../../../../pic32mx/lib/size/libm.a(w_asinf.o)
 .data          0x00000000        0x0 /opt/microchip/xc32/v1.32/bin/bin/../../lib/gcc/pic32mx/4.5.2/../../../../pic32mx/lib/size/libm.a(w_asinf.o)
 .bss           0x00000000        0x0 /opt/microchip/xc32/v1.32/bin/bin/../../lib/gcc/pic32mx/4.5.2/../../../../pic32mx/lib/size/libm.a(w_asinf.o)
 .reginfo       0x00000000       0x18 /opt/microchip/xc32/v1.32/bin/bin/../../lib/gcc/pic32mx/4.5.2/../../../../pic32mx/lib/size/libm.a(w_asinf.o)
 .text          0x00000000        0x0 /opt/microchip/xc32/v1.32/bin/bin/../../lib/gcc/pic32mx/4.5.2/../../../../pic32mx/lib/size/libm.a(w_atan2f.o)
 .data          0x00000000        0x0 /opt/microchip/xc32/v1.32/bin/bin/../../lib/gcc/pic32mx/4.5.2/../../../../pic32mx/lib/size/libm.a(w_atan2f.o)
 .bss           0x00000000        0x0 /opt/microchip/xc32/v1.32/bin/bin/../../lib/gcc/pic32mx/4.5.2/../../../../pic32mx/lib/size/libm.a(w_atan2f.o)
 .reginfo       0x00000000       0x18 /opt/microchip/xc32/v1.32/bin/bin/../../lib/gcc/pic32mx/4.5.2/../../../../pic32mx/lib/size/libm.a(w_atan2f.o)
 .text          0x00000000        0x0 /opt/microchip/xc32/v1.32/bin/bin/../../lib/gcc/pic32mx/4.5.2/../../../../pic32mx/lib/size/libm.a(w_coshf.o)
 .data          0x00000000        0x0 /opt/microchip/xc32/v1.32/bin/bin/../../lib/gcc/pic32mx/4.5.2/../../../../pic32mx/lib/size/libm.a(w_coshf.o)
 .bss           0x00000000        0x0 /opt/microchip/xc32/v1.32/bin/bin/../../lib/gcc/pic32mx/4.5.2/../../../../pic32mx/lib/size/libm.a(w_coshf.o)
 .reginfo       0x00000000       0x18 /opt/microchip/xc32/v1.32/bin/bin/../../lib/gcc/pic32mx/4.5.2/../../../../pic32mx/lib/size/libm.a(w_coshf.o)
 .text          0x00000000        0x0 /opt/microchip/xc32/v1.32/bin/bin/../../lib/gcc/pic32mx/4.5.2/../../../../pic32mx/lib/size/libm.a(w_expf.o)
 .data          0x00000000        0x0 /opt/microchip/xc32/v1.32/bin/bin/../../lib/gcc/pic32mx/4.5.2/../../../../pic32mx/lib/size/libm.a(w_expf.o)
 .bss           0x00000000        0x0 /opt/microchip/xc32/v1.32/bin/bin/../../lib/gcc/pic32mx/4.5.2/../../../../pic32mx/lib/size/libm.a(w_expf.o)
 .reginfo       0x00000000       0x18 /opt/microchip/xc32/v1.32/bin/bin/../../lib/gcc/pic32mx/4.5.2/../../../../pic32mx/lib/size/libm.a(w_expf.o)
 .text          0x00000000        0x0 /opt/microchip/xc32/v1.32/bin/bin/../../lib/gcc/pic32mx/4.5.2/../../../../pic32mx/lib/size/libm.a(w_log10f.o)
 .data          0x00000000        0x0 /opt/microchip/xc32/v1.32/bin/bin/../../lib/gcc/pic32mx/4.5.2/../../../../pic32mx/lib/size/libm.a(w_log10f.o)
 .bss           0x00000000        0x0 /opt/microchip/xc32/v1.32/bin/bin/../../lib/gcc/pic32mx/4.5.2/../../../../pic32mx/lib/size/libm.a(w_log10f.o)
 .reginfo       0x00000000       0x18 /opt/microchip/xc32/v1.32/bin/bin/../../lib/gcc/pic32mx/4.5.2/../../../../pic32mx/lib/size/libm.a(w_log10f.o)
 .text          0x00000000        0x0 /opt/microchip/xc32/v1.32/bin/bin/../../lib/gcc/pic32mx/4.5.2/../../../../pic32mx/lib/size/libm.a(w_logf.o)
 .data          0x00000000        0x0 /opt/microchip/xc32/v1.32/bin/bin/../../lib/gcc/pic32mx/4.5.2/../../../../pic32mx/lib/size/libm.a(w_logf.o)
 .bss           0x00000000        0x0 /opt/microchip/xc32/v1.32/bin/bin/../../lib/gcc/pic32mx/4.5.2/../../../../pic32mx/lib/size/libm.a(w_logf.o)
 .reginfo       0x00000000       0x18 /opt/microchip/xc32/v1.32/bin/bin/../../lib/gcc/pic32mx/4.5.2/../../../../pic32mx/lib/size/libm.a(w_logf.o)
 .text          0x00000000        0x0 /opt/microchip/xc32/v1.32/bin/bin/../../lib/gcc/pic32mx/4.5.2/../../../../pic32mx/lib/size/libm.a(w_powf.o)
 .data          0x00000000        0x0 /opt/microchip/xc32/v1.32/bin/bin/../../lib/gcc/pic32mx/4.5.2/../../../../pic32mx/lib/size/libm.a(w_powf.o)
 .bss           0x00000000        0x0 /opt/microchip/xc32/v1.32/bin/bin/../../lib/gcc/pic32mx/4.5.2/../../../../pic32mx/lib/size/libm.a(w_powf.o)
 .reginfo       0x00000000       0x18 /opt/microchip/xc32/v1.32/bin/bin/../../lib/gcc/pic32mx/4.5.2/../../../../pic32mx/lib/size/libm.a(w_powf.o)
 .text          0x00000000        0x0 /opt/microchip/xc32/v1.32/bin/bin/../../lib/gcc/pic32mx/4.5.2/../../../../pic32mx/lib/size/libm.a(w_sinhf.o)
 .data          0x00000000        0x0 /opt/microchip/xc32/v1.32/bin/bin/../../lib/gcc/pic32mx/4.5.2/../../../../pic32mx/lib/size/libm.a(w_sinhf.o)
 .bss           0x00000000        0x0 /opt/microchip/xc32/v1.32/bin/bin/../../lib/gcc/pic32mx/4.5.2/../../../../pic32mx/lib/size/libm.a(w_sinhf.o)
 .reginfo       0x00000000       0x18 /opt/microchip/xc32/v1.32/bin/bin/../../lib/gcc/pic32mx/4.5.2/../../../../pic32mx/lib/size/libm.a(w_sinhf.o)
 .text          0x00000000        0x0 /opt/microchip/xc32/v1.32/bin/bin/../../lib/gcc/pic32mx/4.5.2/../../../../pic32mx/lib/size/libm.a(w_sqrtf.o)
 .data          0x00000000        0x0 /opt/microchip/xc32/v1.32/bin/bin/../../lib/gcc/pic32mx/4.5.2/../../../../pic32mx/lib/size/libm.a(w_sqrtf.o)
 .bss           0x00000000        0x0 /opt/microchip/xc32/v1.32/bin/bin/../../lib/gcc/pic32mx/4.5.2/../../../../pic32mx/lib/size/libm.a(w_sqrtf.o)
 .reginfo       0x00000000       0x18 /opt/microchip/xc32/v1.32/bin/bin/../../lib/gcc/pic32mx/4.5.2/../../../../pic32mx/lib/size/libm.a(w_sqrtf.o)
 .text          0x00000000        0x0 /opt/microchip/xc32/v1.32/bin/bin/../../lib/gcc/pic32mx/4.5.2/../../../../pic32mx/lib/size/libm.a(support.o)
 .data          0x00000000        0x0 /opt/microchip/xc32/v1.32/bin/bin/../../lib/gcc/pic32mx/4.5.2/../../../../pic32mx/lib/size/libm.a(support.o)
 .bss           0x00000000        0x0 /opt/microchip/xc32/v1.32/bin/bin/../../lib/gcc/pic32mx/4.5.2/../../../../pic32mx/lib/size/libm.a(support.o)
 .reginfo       0x00000000       0x18 /opt/microchip/xc32/v1.32/bin/bin/../../lib/gcc/pic32mx/4.5.2/../../../../pic32mx/lib/size/libm.a(support.o)
 .text.copysignl
                0x00000000       0x34 /opt/microchip/xc32/v1.32/bin/bin/../../lib/gcc/pic32mx/4.5.2/../../../../pic32mx/lib/size/libm.a(support.o)
 .text.copysign
                0x00000000       0x60 /opt/microchip/xc32/v1.32/bin/bin/../../lib/gcc/pic32mx/4.5.2/../../../../pic32mx/lib/size/libm.a(support.o)
 .text.copysignf
                0x00000000       0x60 /opt/microchip/xc32/v1.32/bin/bin/../../lib/gcc/pic32mx/4.5.2/../../../../pic32mx/lib/size/libm.a(support.o)
 .text.logbl    0x00000000      0x120 /opt/microchip/xc32/v1.32/bin/bin/../../lib/gcc/pic32mx/4.5.2/../../../../pic32mx/lib/size/libm.a(support.o)
 .text.logb     0x00000000       0x28 /opt/microchip/xc32/v1.32/bin/bin/../../lib/gcc/pic32mx/4.5.2/../../../../pic32mx/lib/size/libm.a(support.o)
 .text.logbf    0x00000000       0x28 /opt/microchip/xc32/v1.32/bin/bin/../../lib/gcc/pic32mx/4.5.2/../../../../pic32mx/lib/size/libm.a(support.o)
 .text.finite   0x00000000       0x34 /opt/microchip/xc32/v1.32/bin/bin/../../lib/gcc/pic32mx/4.5.2/../../../../pic32mx/lib/size/libm.a(support.o)
 .text.finitef  0x00000000       0x34 /opt/microchip/xc32/v1.32/bin/bin/../../lib/gcc/pic32mx/4.5.2/../../../../pic32mx/lib/size/libm.a(support.o)
 .text.dreml    0x00000000      0x474 /opt/microchip/xc32/v1.32/bin/bin/../../lib/gcc/pic32mx/4.5.2/../../../../pic32mx/lib/size/libm.a(support.o)
 .text.drem     0x00000000       0x28 /opt/microchip/xc32/v1.32/bin/bin/../../lib/gcc/pic32mx/4.5.2/../../../../pic32mx/lib/size/libm.a(support.o)
 .text.dremf    0x00000000       0x28 /opt/microchip/xc32/v1.32/bin/bin/../../lib/gcc/pic32mx/4.5.2/../../../../pic32mx/lib/size/libm.a(support.o)
 .rodata        0x00000000       0x20 /opt/microchip/xc32/v1.32/bin/bin/../../lib/gcc/pic32mx/4.5.2/../../../../pic32mx/lib/size/libm.a(support.o)
 .text          0x00000000        0x0 /opt/microchip/xc32/v1.32/bin/bin/../../lib/gcc/pic32mx/4.5.2/../../../../pic32mx/lib/size/libm.a(dpldexp.o)
 .data          0x00000000        0x0 /opt/microchip/xc32/v1.32/bin/bin/../../lib/gcc/pic32mx/4.5.2/../../../../pic32mx/lib/size/libm.a(dpldexp.o)
 .bss           0x00000000        0x0 /opt/microchip/xc32/v1.32/bin/bin/../../lib/gcc/pic32mx/4.5.2/../../../../pic32mx/lib/size/libm.a(dpldexp.o)
 .reginfo       0x00000000       0x18 /opt/microchip/xc32/v1.32/bin/bin/../../lib/gcc/pic32mx/4.5.2/../../../../pic32mx/lib/size/libm.a(dpldexp.o)
 .text.libm     0x00000000      0x16c /opt/microchip/xc32/v1.32/bin/bin/../../lib/gcc/pic32mx/4.5.2/../../../../pic32mx/lib/size/libm.a(dpldexp.o)
 .text          0x00000000        0x0 /opt/microchip/xc32/v1.32/bin/bin/../../lib/gcc/pic32mx/4.5.2/../../../../pic32mx/lib/size/libm.a(dp32div.o)
 .data          0x00000000        0x0 /opt/microchip/xc32/v1.32/bin/bin/../../lib/gcc/pic32mx/4.5.2/../../../../pic32mx/lib/size/libm.a(dp32div.o)
 .bss           0x00000000        0x0 /opt/microchip/xc32/v1.32/bin/bin/../../lib/gcc/pic32mx/4.5.2/../../../../pic32mx/lib/size/libm.a(dp32div.o)
 .reginfo       0x00000000       0x18 /opt/microchip/xc32/v1.32/bin/bin/../../lib/gcc/pic32mx/4.5.2/../../../../pic32mx/lib/size/libm.a(dp32div.o)
 .text.dp32mul  0x00000000      0x4b8 /opt/microchip/xc32/v1.32/bin/bin/../../lib/gcc/pic32mx/4.5.2/../../../../pic32mx/lib/size/libm.a(dp32div.o)
 .text          0x00000000        0x0 /opt/microchip/xc32/v1.32/bin/bin/../../lib/gcc/pic32mx/4.5.2/../../../../pic32mx/lib/size/libm.a(dp32mul.o)
 .data          0x00000000        0x0 /opt/microchip/xc32/v1.32/bin/bin/../../lib/gcc/pic32mx/4.5.2/../../../../pic32mx/lib/size/libm.a(dp32mul.o)
 .bss           0x00000000        0x0 /opt/microchip/xc32/v1.32/bin/bin/../../lib/gcc/pic32mx/4.5.2/../../../../pic32mx/lib/size/libm.a(dp32mul.o)
 .reginfo       0x00000000       0x18 /opt/microchip/xc32/v1.32/bin/bin/../../lib/gcc/pic32mx/4.5.2/../../../../pic32mx/lib/size/libm.a(dp32mul.o)
 .text.dp32mul  0x00000000      0x32c /opt/microchip/xc32/v1.32/bin/bin/../../lib/gcc/pic32mx/4.5.2/../../../../pic32mx/lib/size/libm.a(dp32mul.o)
 .text          0x00000000        0x0 /opt/microchip/xc32/v1.32/bin/bin/../../lib/gcc/pic32mx/4.5.2/../../../../pic32mx/lib/size/libm.a(dp32subadd.o)
 .data          0x00000000        0x0 /opt/microchip/xc32/v1.32/bin/bin/../../lib/gcc/pic32mx/4.5.2/../../../../pic32mx/lib/size/libm.a(dp32subadd.o)
 .bss           0x00000000        0x0 /opt/microchip/xc32/v1.32/bin/bin/../../lib/gcc/pic32mx/4.5.2/../../../../pic32mx/lib/size/libm.a(dp32subadd.o)
 .reginfo       0x00000000       0x18 /opt/microchip/xc32/v1.32/bin/bin/../../lib/gcc/pic32mx/4.5.2/../../../../pic32mx/lib/size/libm.a(dp32subadd.o)
 .text.dp32subadd
                0x00000000      0x430 /opt/microchip/xc32/v1.32/bin/bin/../../lib/gcc/pic32mx/4.5.2/../../../../pic32mx/lib/size/libm.a(dp32subadd.o)
 .text          0x00000000        0x0 /opt/microchip/xc32/v1.32/bin/bin/../../lib/gcc/pic32mx/4.5.2/../../../../pic32mx/lib/size/libm.a(dpcmp.o)
 .data          0x00000000        0x0 /opt/microchip/xc32/v1.32/bin/bin/../../lib/gcc/pic32mx/4.5.2/../../../../pic32mx/lib/size/libm.a(dpcmp.o)
 .bss           0x00000000        0x0 /opt/microchip/xc32/v1.32/bin/bin/../../lib/gcc/pic32mx/4.5.2/../../../../pic32mx/lib/size/libm.a(dpcmp.o)
 .reginfo       0x00000000       0x18 /opt/microchip/xc32/v1.32/bin/bin/../../lib/gcc/pic32mx/4.5.2/../../../../pic32mx/lib/size/libm.a(dpcmp.o)
 .text          0x00000000        0x0 /opt/microchip/xc32/v1.32/bin/bin/../../lib/gcc/pic32mx/4.5.2/../../../../pic32mx/lib/size/libm.a(dptofp.o)
 .data          0x00000000        0x0 /opt/microchip/xc32/v1.32/bin/bin/../../lib/gcc/pic32mx/4.5.2/../../../../pic32mx/lib/size/libm.a(dptofp.o)
 .bss           0x00000000        0x0 /opt/microchip/xc32/v1.32/bin/bin/../../lib/gcc/pic32mx/4.5.2/../../../../pic32mx/lib/size/libm.a(dptofp.o)
 .reginfo       0x00000000       0x18 /opt/microchip/xc32/v1.32/bin/bin/../../lib/gcc/pic32mx/4.5.2/../../../../pic32mx/lib/size/libm.a(dptofp.o)
 .text          0x00000000        0x0 /opt/microchip/xc32/v1.32/bin/bin/../../lib/gcc/pic32mx/4.5.2/../../../../pic32mx/lib/size/libm.a(fpacos.o)
 .data          0x00000000        0x0 /opt/microchip/xc32/v1.32/bin/bin/../../lib/gcc/pic32mx/4.5.2/../../../../pic32mx/lib/size/libm.a(fpacos.o)
 .bss           0x00000000        0x0 /opt/microchip/xc32/v1.32/bin/bin/../../lib/gcc/pic32mx/4.5.2/../../../../pic32mx/lib/size/libm.a(fpacos.o)
 .reginfo       0x00000000       0x18 /opt/microchip/xc32/v1.32/bin/bin/../../lib/gcc/pic32mx/4.5.2/../../../../pic32mx/lib/size/libm.a(fpacos.o)
 .text          0x00000000        0x0 /opt/microchip/xc32/v1.32/bin/bin/../../lib/gcc/pic32mx/4.5.2/../../../../pic32mx/lib/size/libm.a(fpasin.o)
 .data          0x00000000        0x0 /opt/microchip/xc32/v1.32/bin/bin/../../lib/gcc/pic32mx/4.5.2/../../../../pic32mx/lib/size/libm.a(fpasin.o)
 .bss           0x00000000        0x0 /opt/microchip/xc32/v1.32/bin/bin/../../lib/gcc/pic32mx/4.5.2/../../../../pic32mx/lib/size/libm.a(fpasin.o)
 .reginfo       0x00000000       0x18 /opt/microchip/xc32/v1.32/bin/bin/../../lib/gcc/pic32mx/4.5.2/../../../../pic32mx/lib/size/libm.a(fpasin.o)
 .text          0x00000000        0x0 /opt/microchip/xc32/v1.32/bin/bin/../../lib/gcc/pic32mx/4.5.2/../../../../pic32mx/lib/size/libm.a(fpatan2.o)
 .data          0x00000000        0x0 /opt/microchip/xc32/v1.32/bin/bin/../../lib/gcc/pic32mx/4.5.2/../../../../pic32mx/lib/size/libm.a(fpatan2.o)
 .bss           0x00000000        0x0 /opt/microchip/xc32/v1.32/bin/bin/../../lib/gcc/pic32mx/4.5.2/../../../../pic32mx/lib/size/libm.a(fpatan2.o)
 .reginfo       0x00000000       0x18 /opt/microchip/xc32/v1.32/bin/bin/../../lib/gcc/pic32mx/4.5.2/../../../../pic32mx/lib/size/libm.a(fpatan2.o)
 .text          0x00000000        0x0 /opt/microchip/xc32/v1.32/bin/bin/../../lib/gcc/pic32mx/4.5.2/../../../../pic32mx/lib/size/libm.a(fpcosh.o)
 .data          0x00000000        0x0 /opt/microchip/xc32/v1.32/bin/bin/../../lib/gcc/pic32mx/4.5.2/../../../../pic32mx/lib/size/libm.a(fpcosh.o)
 .bss           0x00000000        0x0 /opt/microchip/xc32/v1.32/bin/bin/../../lib/gcc/pic32mx/4.5.2/../../../../pic32mx/lib/size/libm.a(fpcosh.o)
 .reginfo       0x00000000       0x18 /opt/microchip/xc32/v1.32/bin/bin/../../lib/gcc/pic32mx/4.5.2/../../../../pic32mx/lib/size/libm.a(fpcosh.o)
 .bss           0x00000000        0x0 /opt/microchip/xc32/v1.32/bin/bin/../../lib/gcc/pic32mx/4.5.2/../../../../pic32mx/lib/size/libm.a(fpexp32.o)
 .reginfo       0x00000000       0x18 /opt/microchip/xc32/v1.32/bin/bin/../../lib/gcc/pic32mx/4.5.2/../../../../pic32mx/lib/size/libm.a(fpexp32.o)
 .text.libm     0x00000000        0x0 /opt/microchip/xc32/v1.32/bin/bin/../../lib/gcc/pic32mx/4.5.2/../../../../pic32mx/lib/size/libm.a(fpexp32.o)
 .text          0x00000000        0x0 /opt/microchip/xc32/v1.32/bin/bin/../../lib/gcc/pic32mx/4.5.2/../../../../pic32mx/lib/size/libm.a(fpfabs.o)
 .data          0x00000000        0x0 /opt/microchip/xc32/v1.32/bin/bin/../../lib/gcc/pic32mx/4.5.2/../../../../pic32mx/lib/size/libm.a(fpfabs.o)
 .bss           0x00000000        0x0 /opt/microchip/xc32/v1.32/bin/bin/../../lib/gcc/pic32mx/4.5.2/../../../../pic32mx/lib/size/libm.a(fpfabs.o)
 .reginfo       0x00000000       0x18 /opt/microchip/xc32/v1.32/bin/bin/../../lib/gcc/pic32mx/4.5.2/../../../../pic32mx/lib/size/libm.a(fpfabs.o)
 .text          0x00000000        0x0 /opt/microchip/xc32/v1.32/bin/bin/../../lib/gcc/pic32mx/4.5.2/../../../../pic32mx/lib/size/libm.a(fplog.o)
 .data          0x00000000        0x0 /opt/microchip/xc32/v1.32/bin/bin/../../lib/gcc/pic32mx/4.5.2/../../../../pic32mx/lib/size/libm.a(fplog.o)
 .bss           0x00000000        0x0 /opt/microchip/xc32/v1.32/bin/bin/../../lib/gcc/pic32mx/4.5.2/../../../../pic32mx/lib/size/libm.a(fplog.o)
 .reginfo       0x00000000       0x18 /opt/microchip/xc32/v1.32/bin/bin/../../lib/gcc/pic32mx/4.5.2/../../../../pic32mx/lib/size/libm.a(fplog.o)
 .text          0x00000000        0x0 /opt/microchip/xc32/v1.32/bin/bin/../../lib/gcc/pic32mx/4.5.2/../../../../pic32mx/lib/size/libm.a(fplog10.o)
 .data          0x00000000        0x0 /opt/microchip/xc32/v1.32/bin/bin/../../lib/gcc/pic32mx/4.5.2/../../../../pic32mx/lib/size/libm.a(fplog10.o)
 .bss           0x00000000        0x0 /opt/microchip/xc32/v1.32/bin/bin/../../lib/gcc/pic32mx/4.5.2/../../../../pic32mx/lib/size/libm.a(fplog10.o)
 .reginfo       0x00000000       0x18 /opt/microchip/xc32/v1.32/bin/bin/../../lib/gcc/pic32mx/4.5.2/../../../../pic32mx/lib/size/libm.a(fplog10.o)
 .text          0x00000000        0x0 /opt/microchip/xc32/v1.32/bin/bin/../../lib/gcc/pic32mx/4.5.2/../../../../pic32mx/lib/size/libm.a(fppow32.o)
 .data          0x00000000        0x0 /opt/microchip/xc32/v1.32/bin/bin/../../lib/gcc/pic32mx/4.5.2/../../../../pic32mx/lib/size/libm.a(fppow32.o)
 .bss           0x00000000        0x0 /opt/microchip/xc32/v1.32/bin/bin/../../lib/gcc/pic32mx/4.5.2/../../../../pic32mx/lib/size/libm.a(fppow32.o)
 .reginfo       0x00000000       0x18 /opt/microchip/xc32/v1.32/bin/bin/../../lib/gcc/pic32mx/4.5.2/../../../../pic32mx/lib/size/libm.a(fppow32.o)
 .text          0x00000000        0x0 /opt/microchip/xc32/v1.32/bin/bin/../../lib/gcc/pic32mx/4.5.2/../../../../pic32mx/lib/size/libm.a(fpsinh.o)
 .bss           0x00000000        0x0 /opt/microchip/xc32/v1.32/bin/bin/../../lib/gcc/pic32mx/4.5.2/../../../../pic32mx/lib/size/libm.a(fpsinh.o)
 .reginfo       0x00000000       0x18 /opt/microchip/xc32/v1.32/bin/bin/../../lib/gcc/pic32mx/4.5.2/../../../../pic32mx/lib/size/libm.a(fpsinh.o)
 .text          0x00000000        0x0 /opt/microchip/xc32/v1.32/bin/bin/../../lib/gcc/pic32mx/4.5.2/../../../../pic32mx/lib/size/libm.a(fpsqrt32.o)
 .data          0x00000000        0x0 /opt/microchip/xc32/v1.32/bin/bin/../../lib/gcc/pic32mx/4.5.2/../../../../pic32mx/lib/size/libm.a(fpsqrt32.o)
 .bss           0x00000000        0x0 /opt/microchip/xc32/v1.32/bin/bin/../../lib/gcc/pic32mx/4.5.2/../../../../pic32mx/lib/size/libm.a(fpsqrt32.o)
 .reginfo       0x00000000       0x18 /opt/microchip/xc32/v1.32/bin/bin/../../lib/gcc/pic32mx/4.5.2/../../../../pic32mx/lib/size/libm.a(fpsqrt32.o)
 .text          0x00000000        0x0 /opt/microchip/xc32/v1.32/bin/bin/../../lib/gcc/pic32mx/4.5.2/../../../../pic32mx/lib/size/libm.a(fptodp.o)
 .data          0x00000000        0x0 /opt/microchip/xc32/v1.32/bin/bin/../../lib/gcc/pic32mx/4.5.2/../../../../pic32mx/lib/size/libm.a(fptodp.o)
 .bss           0x00000000        0x0 /opt/microchip/xc32/v1.32/bin/bin/../../lib/gcc/pic32mx/4.5.2/../../../../pic32mx/lib/size/libm.a(fptodp.o)
 .reginfo       0x00000000       0x18 /opt/microchip/xc32/v1.32/bin/bin/../../lib/gcc/pic32mx/4.5.2/../../../../pic32mx/lib/size/libm.a(fptodp.o)
 .text          0x00000000        0x0 /opt/microchip/xc32/v1.32/bin/bin/../../lib/gcc/pic32mx/4.5.2/../../../../pic32mx/lib/size/libm.a(litodp.o)
 .data          0x00000000        0x0 /opt/microchip/xc32/v1.32/bin/bin/../../lib/gcc/pic32mx/4.5.2/../../../../pic32mx/lib/size/libm.a(litodp.o)
 .bss           0x00000000        0x0 /opt/microchip/xc32/v1.32/bin/bin/../../lib/gcc/pic32mx/4.5.2/../../../../pic32mx/lib/size/libm.a(litodp.o)
 .reginfo       0x00000000       0x18 /opt/microchip/xc32/v1.32/bin/bin/../../lib/gcc/pic32mx/4.5.2/../../../../pic32mx/lib/size/libm.a(litodp.o)
 .text.litodp   0x00000000       0x78 /opt/microchip/xc32/v1.32/bin/bin/../../lib/gcc/pic32mx/4.5.2/../../../../pic32mx/lib/size/libm.a(litodp.o)
 .text          0x00000000        0x0 /opt/microchip/xc32/v1.32/bin/bin/../../lib/gcc/pic32mx/4.5.2/../../../../pic32mx/lib/size/libm.a(s_lib_ver.o)
 .data          0x00000000        0x0 /opt/microchip/xc32/v1.32/bin/bin/../../lib/gcc/pic32mx/4.5.2/../../../../pic32mx/lib/size/libm.a(s_lib_ver.o)
 .bss           0x00000000        0x0 /opt/microchip/xc32/v1.32/bin/bin/../../lib/gcc/pic32mx/4.5.2/../../../../pic32mx/lib/size/libm.a(s_lib_ver.o)
 .reginfo       0x00000000       0x18 /opt/microchip/xc32/v1.32/bin/bin/../../lib/gcc/pic32mx/4.5.2/../../../../pic32mx/lib/size/libm.a(s_lib_ver.o)
 .text          0x00000000        0x0 /opt/microchip/xc32/v1.32/bin/bin/../../lib/gcc/pic32mx/4.5.2/../../../../pic32mx/lib/size/libm.a(fpexlog.o)
 .bss           0x00000000        0x0 /opt/microchip/xc32/v1.32/bin/bin/../../lib/gcc/pic32mx/4.5.2/../../../../pic32mx/lib/size/libm.a(fpexlog.o)
 .reginfo       0x00000000       0x18 /opt/microchip/xc32/v1.32/bin/bin/../../lib/gcc/pic32mx/4.5.2/../../../../pic32mx/lib/size/libm.a(fpexlog.o)
 .data          0x00000000        0x0 /opt/microchip/xc32/v1.32/bin/bin/../../lib/gcc/pic32mx/4.5.2/../../../../pic32mx/lib/size/libpic32.a(memset.o)
 .bss           0x00000000        0x0 /opt/microchip/xc32/v1.32/bin/bin/../../lib/gcc/pic32mx/4.5.2/../../../../pic32mx/lib/size/libpic32.a(memset.o)
 .reginfo       0x00000000       0x18 /opt/microchip/xc32/v1.32/bin/bin/../../lib/gcc/pic32mx/4.5.2/../../../../pic32mx/lib/size/libpic32.a(memset.o)
 .data          0x00000000        0x0 /opt/microchip/xc32/v1.32/bin/bin/../../lib/gcc/pic32mx/4.5.2/../../../../pic32mx/lib/size/libpic32.a(strcpy.o)
 .bss           0x00000000        0x0 /opt/microchip/xc32/v1.32/bin/bin/../../lib/gcc/pic32mx/4.5.2/../../../../pic32mx/lib/size/libpic32.a(strcpy.o)
 .reginfo       0x00000000       0x18 /opt/microchip/xc32/v1.32/bin/bin/../../lib/gcc/pic32mx/4.5.2/../../../../pic32mx/lib/size/libpic32.a(strcpy.o)
 .data          0x00000000        0x0 /opt/microchip/xc32/v1.32/bin/bin/../../lib/gcc/pic32mx/4.5.2/../../../../pic32mx/lib/size/libpic32.a(strlen.o)
 .bss           0x00000000        0x0 /opt/microchip/xc32/v1.32/bin/bin/../../lib/gcc/pic32mx/4.5.2/../../../../pic32mx/lib/size/libpic32.a(strlen.o)
 .reginfo       0x00000000       0x18 /opt/microchip/xc32/v1.32/bin/bin/../../lib/gcc/pic32mx/4.5.2/../../../../pic32mx/lib/size/libpic32.a(strlen.o)
 .text          0x00000000        0x0 /opt/microchip/xc32/v1.32/bin/bin/../../lib/gcc/pic32mx/4.5.2/../../../../pic32mx/lib/size/libpic32.a(default-bootstrap-exception-handler.o)
 .data          0x00000000        0x0 /opt/microchip/xc32/v1.32/bin/bin/../../lib/gcc/pic32mx/4.5.2/../../../../pic32mx/lib/size/libpic32.a(default-bootstrap-exception-handler.o)
 .bss           0x00000000        0x0 /opt/microchip/xc32/v1.32/bin/bin/../../lib/gcc/pic32mx/4.5.2/../../../../pic32mx/lib/size/libpic32.a(default-bootstrap-exception-handler.o)
 .reginfo       0x00000000       0x18 /opt/microchip/xc32/v1.32/bin/bin/../../lib/gcc/pic32mx/4.5.2/../../../../pic32mx/lib/size/libpic32.a(default-bootstrap-exception-handler.o)
 .text          0x00000000        0x0 /opt/microchip/xc32/v1.32/bin/bin/../../lib/gcc/pic32mx/4.5.2/../../../../pic32mx/lib/size/libpic32.a(default-on-reset.o)
 .data          0x00000000        0x0 /opt/microchip/xc32/v1.32/bin/bin/../../lib/gcc/pic32mx/4.5.2/../../../../pic32mx/lib/size/libpic32.a(default-on-reset.o)
 .bss           0x00000000        0x0 /opt/microchip/xc32/v1.32/bin/bin/../../lib/gcc/pic32mx/4.5.2/../../../../pic32mx/lib/size/libpic32.a(default-on-reset.o)
 .reginfo       0x00000000       0x18 /opt/microchip/xc32/v1.32/bin/bin/../../lib/gcc/pic32mx/4.5.2/../../../../pic32mx/lib/size/libpic32.a(default-on-reset.o)
 .text          0x00000000        0x0 /opt/microchip/xc32/v1.32/bin/bin/../../lib/gcc/pic32mx/4.5.2/../../../../pic32mx/lib/size/libpic32.a(default-on-bootstrap.o)
 .data          0x00000000        0x0 /opt/microchip/xc32/v1.32/bin/bin/../../lib/gcc/pic32mx/4.5.2/../../../../pic32mx/lib/size/libpic32.a(default-on-bootstrap.o)
 .bss           0x00000000        0x0 /opt/microchip/xc32/v1.32/bin/bin/../../lib/gcc/pic32mx/4.5.2/../../../../pic32mx/lib/size/libpic32.a(default-on-bootstrap.o)
 .reginfo       0x00000000       0x18 /opt/microchip/xc32/v1.32/bin/bin/../../lib/gcc/pic32mx/4.5.2/../../../../pic32mx/lib/size/libpic32.a(default-on-bootstrap.o)
 .data          0x00000000        0x0 /opt/microchip/xc32/v1.32/bin/bin/../../lib/gcc/pic32mx/4.5.2/../../../../pic32mx/lib/size/libpic32.a(default-nmi-handler.o)
 .bss           0x00000000        0x0 /opt/microchip/xc32/v1.32/bin/bin/../../lib/gcc/pic32mx/4.5.2/../../../../pic32mx/lib/size/libpic32.a(default-nmi-handler.o)
 .reginfo       0x00000000       0x18 /opt/microchip/xc32/v1.32/bin/bin/../../lib/gcc/pic32mx/4.5.2/../../../../pic32mx/lib/size/libpic32.a(default-nmi-handler.o)
 .text          0x00000000        0x0 /opt/microchip/xc32/v1.32/bin/bin/../../lib/gcc/pic32mx/4.5.2/../../../../pic32mx/lib/size/libpic32.a(errno.o)
 .data          0x00000000        0x0 /opt/microchip/xc32/v1.32/bin/bin/../../lib/gcc/pic32mx/4.5.2/../../../../pic32mx/lib/size/libpic32.a(errno.o)
 .bss           0x00000000        0x0 /opt/microchip/xc32/v1.32/bin/bin/../../lib/gcc/pic32mx/4.5.2/../../../../pic32mx/lib/size/libpic32.a(errno.o)
 .reginfo       0x00000000       0x18 /opt/microchip/xc32/v1.32/bin/bin/../../lib/gcc/pic32mx/4.5.2/../../../../pic32mx/lib/size/libpic32.a(errno.o)
 .text          0x00000000        0x0 /opt/microchip/xc32/v1.32/bin/bin/../../lib/gcc/pic32mx/4.5.2/../../../../pic32mx/lib/size/libpic32.a(isinf.o)
 .data          0x00000000        0x0 /opt/microchip/xc32/v1.32/bin/bin/../../lib/gcc/pic32mx/4.5.2/../../../../pic32mx/lib/size/libpic32.a(isinf.o)
 .bss           0x00000000        0x0 /opt/microchip/xc32/v1.32/bin/bin/../../lib/gcc/pic32mx/4.5.2/../../../../pic32mx/lib/size/libpic32.a(isinf.o)
 .reginfo       0x00000000       0x18 /opt/microchip/xc32/v1.32/bin/bin/../../lib/gcc/pic32mx/4.5.2/../../../../pic32mx/lib/size/libpic32.a(isinf.o)
 .text.isnanl   0x00000000       0x24 /opt/microchip/xc32/v1.32/bin/bin/../../lib/gcc/pic32mx/4.5.2/../../../../pic32mx/lib/size/libpic32.a(isinf.o)
 .text.isnan    0x00000000       0x34 /opt/microchip/xc32/v1.32/bin/bin/../../lib/gcc/pic32mx/4.5.2/../../../../pic32mx/lib/size/libpic32.a(isinf.o)
 .text.isnanf   0x00000000       0x34 /opt/microchip/xc32/v1.32/bin/bin/../../lib/gcc/pic32mx/4.5.2/../../../../pic32mx/lib/size/libpic32.a(isinf.o)
 .text.isinf    0x00000000       0x88 /opt/microchip/xc32/v1.32/bin/bin/../../lib/gcc/pic32mx/4.5.2/../../../../pic32mx/lib/size/libpic32.a(isinf.o)
 .text.isinff   0x00000000       0x88 /opt/microchip/xc32/v1.32/bin/bin/../../lib/gcc/pic32mx/4.5.2/../../../../pic32mx/lib/size/libpic32.a(isinf.o)
 .rodata        0x00000000        0x8 /opt/microchip/xc32/v1.32/bin/bin/../../lib/gcc/pic32mx/4.5.2/../../../../pic32mx/lib/size/libpic32.a(isinf.o)
 .text          0x00000000        0x0 /opt/microchip/xc32/v1.32/bin/bin/../../lib/gcc/pic32mx/4.5.2/../../../../pic32mx/lib/size/libpic32.a(general-exception.o)
 .data          0x00000000        0x0 /opt/microchip/xc32/v1.32/bin/bin/../../lib/gcc/pic32mx/4.5.2/../../../../pic32mx/lib/size/libpic32.a(general-exception.o)
 .bss           0x00000000        0x0 /opt/microchip/xc32/v1.32/bin/bin/../../lib/gcc/pic32mx/4.5.2/../../../../pic32mx/lib/size/libpic32.a(general-exception.o)
 .reginfo       0x00000000       0x18 /opt/microchip/xc32/v1.32/bin/bin/../../lib/gcc/pic32mx/4.5.2/../../../../pic32mx/lib/size/libpic32.a(general-exception.o)
 .text          0x00000000        0x0 /opt/microchip/xc32/v1.32/bin/bin/../../lib/gcc/pic32mx/4.5.2/../../../../pic32mx/lib/size/libe.a(_unorddf2.o)
 .data          0x00000000        0x0 /opt/microchip/xc32/v1.32/bin/bin/../../lib/gcc/pic32mx/4.5.2/../../../../pic32mx/lib/size/libe.a(_unorddf2.o)
 .bss           0x00000000        0x0 /opt/microchip/xc32/v1.32/bin/bin/../../lib/gcc/pic32mx/4.5.2/../../../../pic32mx/lib/size/libe.a(_unorddf2.o)
 .reginfo       0x00000000       0x18 /opt/microchip/xc32/v1.32/bin/bin/../../lib/gcc/pic32mx/4.5.2/../../../../pic32mx/lib/size/libe.a(_unorddf2.o)
 .text.__unorddf2
                0x00000000       0x68 /opt/microchip/xc32/v1.32/bin/bin/../../lib/gcc/pic32mx/4.5.2/../../../../pic32mx/lib/size/libe.a(_unorddf2.o)
 .text          0x00000000        0x0 /opt/microchip/xc32/v1.32/bin/bin/../../lib/gcc/pic32mx/4.5.2/../../../../pic32mx/lib/size/libc.a(ctypef.o)
 .data          0x00000000        0x0 /opt/microchip/xc32/v1.32/bin/bin/../../lib/gcc/pic32mx/4.5.2/../../../../pic32mx/lib/size/libc.a(ctypef.o)
 .bss           0x00000000        0x0 /opt/microchip/xc32/v1.32/bin/bin/../../lib/gcc/pic32mx/4.5.2/../../../../pic32mx/lib/size/libc.a(ctypef.o)
 .reginfo       0x00000000       0x18 /opt/microchip/xc32/v1.32/bin/bin/../../lib/gcc/pic32mx/4.5.2/../../../../pic32mx/lib/size/libc.a(ctypef.o)
 .text.isalnum  0x00000000       0x18 /opt/microchip/xc32/v1.32/bin/bin/../../lib/gcc/pic32mx/4.5.2/../../../../pic32mx/lib/size/libc.a(ctypef.o)
 .text.isalpha  0x00000000       0x18 /opt/microchip/xc32/v1.32/bin/bin/../../lib/gcc/pic32mx/4.5.2/../../../../pic32mx/lib/size/libc.a(ctypef.o)
 .text.isascii  0x00000000        0x8 /opt/microchip/xc32/v1.32/bin/bin/../../lib/gcc/pic32mx/4.5.2/../../../../pic32mx/lib/size/libc.a(ctypef.o)
 .text.iscntrl  0x00000000       0x18 /opt/microchip/xc32/v1.32/bin/bin/../../lib/gcc/pic32mx/4.5.2/../../../../pic32mx/lib/size/libc.a(ctypef.o)
 .text.isdigit  0x00000000       0x18 /opt/microchip/xc32/v1.32/bin/bin/../../lib/gcc/pic32mx/4.5.2/../../../../pic32mx/lib/size/libc.a(ctypef.o)
 .text.isgraph  0x00000000       0x18 /opt/microchip/xc32/v1.32/bin/bin/../../lib/gcc/pic32mx/4.5.2/../../../../pic32mx/lib/size/libc.a(ctypef.o)
 .text.islower  0x00000000       0x18 /opt/microchip/xc32/v1.32/bin/bin/../../lib/gcc/pic32mx/4.5.2/../../../../pic32mx/lib/size/libc.a(ctypef.o)
 .text.isprint  0x00000000       0x18 /opt/microchip/xc32/v1.32/bin/bin/../../lib/gcc/pic32mx/4.5.2/../../../../pic32mx/lib/size/libc.a(ctypef.o)
 .text.ispunct  0x00000000       0x18 /opt/microchip/xc32/v1.32/bin/bin/../../lib/gcc/pic32mx/4.5.2/../../../../pic32mx/lib/size/libc.a(ctypef.o)
 .text.isspace  0x00000000       0x18 /opt/microchip/xc32/v1.32/bin/bin/../../lib/gcc/pic32mx/4.5.2/../../../../pic32mx/lib/size/libc.a(ctypef.o)
 .text.isupper  0x00000000       0x18 /opt/microchip/xc32/v1.32/bin/bin/../../lib/gcc/pic32mx/4.5.2/../../../../pic32mx/lib/size/libc.a(ctypef.o)
 .text.isxdigit
                0x00000000       0x18 /opt/microchip/xc32/v1.32/bin/bin/../../lib/gcc/pic32mx/4.5.2/../../../../pic32mx/lib/size/libc.a(ctypef.o)
 .text.toascii  0x00000000        0x8 /opt/microchip/xc32/v1.32/bin/bin/../../lib/gcc/pic32mx/4.5.2/../../../../pic32mx/lib/size/libc.a(ctypef.o)
 .text._tolower
                0x00000000        0x8 /opt/microchip/xc32/v1.32/bin/bin/../../lib/gcc/pic32mx/4.5.2/../../../../pic32mx/lib/size/libc.a(ctypef.o)
 .text._toupper
                0x00000000        0x8 /opt/microchip/xc32/v1.32/bin/bin/../../lib/gcc/pic32mx/4.5.2/../../../../pic32mx/lib/size/libc.a(ctypef.o)
 .text          0x00000000        0x0 /opt/microchip/xc32/v1.32/bin/bin/../../lib/gcc/pic32mx/4.5.2/../../../../pic32mx/lib/size/libc.a(strncpy.o)
 .data          0x00000000        0x0 /opt/microchip/xc32/v1.32/bin/bin/../../lib/gcc/pic32mx/4.5.2/../../../../pic32mx/lib/size/libc.a(strncpy.o)
 .bss           0x00000000        0x0 /opt/microchip/xc32/v1.32/bin/bin/../../lib/gcc/pic32mx/4.5.2/../../../../pic32mx/lib/size/libc.a(strncpy.o)
 .reginfo       0x00000000       0x18 /opt/microchip/xc32/v1.32/bin/bin/../../lib/gcc/pic32mx/4.5.2/../../../../pic32mx/lib/size/libc.a(strncpy.o)
 .text          0x00000000        0x0 /opt/microchip/xc32/v1.32/bin/bin/../../lib/gcc/pic32mx/4.5.2/../../../../pic32mx/lib/size/libc.a(strtof.o)
 .data          0x00000000        0x0 /opt/microchip/xc32/v1.32/bin/bin/../../lib/gcc/pic32mx/4.5.2/../../../../pic32mx/lib/size/libc.a(strtof.o)
 .bss           0x00000000        0x0 /opt/microchip/xc32/v1.32/bin/bin/../../lib/gcc/pic32mx/4.5.2/../../../../pic32mx/lib/size/libc.a(strtof.o)
 .reginfo       0x00000000       0x18 /opt/microchip/xc32/v1.32/bin/bin/../../lib/gcc/pic32mx/4.5.2/../../../../pic32mx/lib/size/libc.a(strtof.o)
 .text.strtodf  0x00000000       0x1c /opt/microchip/xc32/v1.32/bin/bin/../../lib/gcc/pic32mx/4.5.2/../../../../pic32mx/lib/size/libc.a(strtof.o)
 .text          0x00000000        0x0 /opt/microchip/xc32/v1.32/bin/bin/../../lib/gcc/pic32mx/4.5.2/../../../../pic32mx/lib/size/libc.a(snprintf.o)
 .data          0x00000000        0x0 /opt/microchip/xc32/v1.32/bin/bin/../../lib/gcc/pic32mx/4.5.2/../../../../pic32mx/lib/size/libc.a(snprintf.o)
 .bss           0x00000000        0x0 /opt/microchip/xc32/v1.32/bin/bin/../../lib/gcc/pic32mx/4.5.2/../../../../pic32mx/lib/size/libc.a(snprintf.o)
 .reginfo       0x00000000       0x18 /opt/microchip/xc32/v1.32/bin/bin/../../lib/gcc/pic32mx/4.5.2/../../../../pic32mx/lib/size/libc.a(snprintf.o)
 .text          0x00000000        0x0 /opt/microchip/xc32/v1.32/bin/bin/../../lib/gcc/pic32mx/4.5.2/../../../../pic32mx/lib/size/libc.a(vsnprintf.o)
 .data          0x00000000        0x0 /opt/microchip/xc32/v1.32/bin/bin/../../lib/gcc/pic32mx/4.5.2/../../../../pic32mx/lib/size/libc.a(vsnprintf.o)
 .bss           0x00000000        0x0 /opt/microchip/xc32/v1.32/bin/bin/../../lib/gcc/pic32mx/4.5.2/../../../../pic32mx/lib/size/libc.a(vsnprintf.o)
 .reginfo       0x00000000       0x18 /opt/microchip/xc32/v1.32/bin/bin/../../lib/gcc/pic32mx/4.5.2/../../../../pic32mx/lib/size/libc.a(vsnprintf.o)
 .text          0x00000000        0x0 /opt/microchip/xc32/v1.32/bin/bin/../../lib/gcc/pic32mx/4.5.2/../../../../pic32mx/lib/size/libc.a(ctype.o)
 .data          0x00000000        0x0 /opt/microchip/xc32/v1.32/bin/bin/../../lib/gcc/pic32mx/4.5.2/../../../../pic32mx/lib/size/libc.a(ctype.o)
 .bss           0x00000000        0x0 /opt/microchip/xc32/v1.32/bin/bin/../../lib/gcc/pic32mx/4.5.2/../../../../pic32mx/lib/size/libc.a(ctype.o)
 .reginfo       0x00000000       0x18 /opt/microchip/xc32/v1.32/bin/bin/../../lib/gcc/pic32mx/4.5.2/../../../../pic32mx/lib/size/libc.a(ctype.o)
 .text          0x00000000        0x0 /opt/microchip/xc32/v1.32/bin/bin/../../lib/gcc/pic32mx/4.5.2/../../../../pic32mx/lib/size/libc.a(doprnt.o)
 .data          0x00000000        0x0 /opt/microchip/xc32/v1.32/bin/bin/../../lib/gcc/pic32mx/4.5.2/../../../../pic32mx/lib/size/libc.a(doprnt.o)
 .bss           0x00000000        0x0 /opt/microchip/xc32/v1.32/bin/bin/../../lib/gcc/pic32mx/4.5.2/../../../../pic32mx/lib/size/libc.a(doprnt.o)
 .reginfo       0x00000000       0x18 /opt/microchip/xc32/v1.32/bin/bin/../../lib/gcc/pic32mx/4.5.2/../../../../pic32mx/lib/size/libc.a(doprnt.o)
 .text          0x00000000        0x0 /opt/microchip/xc32/v1.32/bin/bin/../../lib/gcc/pic32mx/4.5.2/../../../../pic32mx/lib/size/libc.a(_fputc_simple.o)
 .data          0x00000000        0x0 /opt/microchip/xc32/v1.32/bin/bin/../../lib/gcc/pic32mx/4.5.2/../../../../pic32mx/lib/size/libc.a(_fputc_simple.o)
 .bss           0x00000000        0x0 /opt/microchip/xc32/v1.32/bin/bin/../../lib/gcc/pic32mx/4.5.2/../../../../pic32mx/lib/size/libc.a(_fputc_simple.o)
 .reginfo       0x00000000       0x18 /opt/microchip/xc32/v1.32/bin/bin/../../lib/gcc/pic32mx/4.5.2/../../../../pic32mx/lib/size/libc.a(_fputc_simple.o)
 .text          0x00000000        0x0 /opt/microchip/xc32/v1.32/bin/bin/../../lib/gcc/pic32mx/4.5.2/../../../../pic32mx/lib/size/libc.a(powersf.o)
 .data          0x00000000        0x0 /opt/microchip/xc32/v1.32/bin/bin/../../lib/gcc/pic32mx/4.5.2/../../../../pic32mx/lib/size/libc.a(powersf.o)
 .bss           0x00000000        0x0 /opt/microchip/xc32/v1.32/bin/bin/../../lib/gcc/pic32mx/4.5.2/../../../../pic32mx/lib/size/libc.a(powersf.o)
 .reginfo       0x00000000       0x18 /opt/microchip/xc32/v1.32/bin/bin/../../lib/gcc/pic32mx/4.5.2/../../../../pic32mx/lib/size/libc.a(powersf.o)
 .text          0x00000000        0x0 /opt/microchip/xc32/v1.32/bin/bin/../../lib/gcc/pic32mx/4.5.2/../../../../pic32mx/lib/size/libc.a(_iob.o)
 .reginfo       0x00000000       0x18 /opt/microchip/xc32/v1.32/bin/bin/../../lib/gcc/pic32mx/4.5.2/../../../../pic32mx/lib/size/libc.a(_iob.o)
 .text          0x00000000        0x0 /opt/microchip/xc32/v1.32/bin/bin/../../lib/gcc/pic32mx/4.5.2/../../../../pic32mx/lib/size/libc.a(_flsbuf_simple.o)
 .data          0x00000000        0x0 /opt/microchip/xc32/v1.32/bin/bin/../../lib/gcc/pic32mx/4.5.2/../../../../pic32mx/lib/size/libc.a(_flsbuf_simple.o)
 .bss           0x00000000        0x0 /opt/microchip/xc32/v1.32/bin/bin/../../lib/gcc/pic32mx/4.5.2/../../../../pic32mx/lib/size/libc.a(_flsbuf_simple.o)
 .reginfo       0x00000000       0x18 /opt/microchip/xc32/v1.32/bin/bin/../../lib/gcc/pic32mx/4.5.2/../../../../pic32mx/lib/size/libc.a(_flsbuf_simple.o)
 .text          0x00000000        0x0 /opt/microchip/xc32/v1.32/bin/bin/../../lib/gcc/pic32mx/4.5.2/../../../../pic32mx/lib/size/libpic32.a(write.o)
 .data          0x00000000        0x0 /opt/microchip/xc32/v1.32/bin/bin/../../lib/gcc/pic32mx/4.5.2/../../../../pic32mx/lib/size/libpic32.a(write.o)
 .bss           0x00000000        0x0 /opt/microchip/xc32/v1.32/bin/bin/../../lib/gcc/pic32mx/4.5.2/../../../../pic32mx/lib/size/libpic32.a(write.o)
 .reginfo       0x00000000       0x18 /opt/microchip/xc32/v1.32/bin/bin/../../lib/gcc/pic32mx/4.5.2/../../../../pic32mx/lib/size/libpic32.a(write.o)
 .text          0x00000000        0x0 /opt/microchip/xc32/v1.32/bin/bin/../../lib/gcc/pic32mx/4.5.2/../../../../pic32mx/lib/size/libpic32.a(_mon_putc.o)
 .data          0x00000000        0x0 /opt/microchip/xc32/v1.32/bin/bin/../../lib/gcc/pic32mx/4.5.2/../../../../pic32mx/lib/size/libpic32.a(_mon_putc.o)
 .bss           0x00000000        0x0 /opt/microchip/xc32/v1.32/bin/bin/../../lib/gcc/pic32mx/4.5.2/../../../../pic32mx/lib/size/libpic32.a(_mon_putc.o)
 .reginfo       0x00000000       0x18 /opt/microchip/xc32/v1.32/bin/bin/../../lib/gcc/pic32mx/4.5.2/../../../../pic32mx/lib/size/libpic32.a(_mon_putc.o)
 .text          0x00000000        0x0 /opt/microchip/xc32/v1.32/bin/bin/../../lib/gcc/pic32mx/4.5.2/../../../../pic32mx/lib/size/libpic32.a(xc32_uart.o)
 .data          0x00000000        0x0 /opt/microchip/xc32/v1.32/bin/bin/../../lib/gcc/pic32mx/4.5.2/../../../../pic32mx/lib/size/libpic32.a(xc32_uart.o)
 .bss           0x00000000        0x0 /opt/microchip/xc32/v1.32/bin/bin/../../lib/gcc/pic32mx/4.5.2/../../../../pic32mx/lib/size/libpic32.a(xc32_uart.o)
 .reginfo       0x00000000       0x18 /opt/microchip/xc32/v1.32/bin/bin/../../lib/gcc/pic32mx/4.5.2/../../../../pic32mx/lib/size/libpic32.a(xc32_uart.o)
 .text          0x00000000        0x0 /opt/microchip/xc32/v1.32/bin/bin/../../lib/gcc/pic32mx/4.5.2/../../../../pic32mx/lib/size/libm.a(fpfrexp.o)
 .data          0x00000000        0x0 /opt/microchip/xc32/v1.32/bin/bin/../../lib/gcc/pic32mx/4.5.2/../../../../pic32mx/lib/size/libm.a(fpfrexp.o)
 .bss           0x00000000        0x0 /opt/microchip/xc32/v1.32/bin/bin/../../lib/gcc/pic32mx/4.5.2/../../../../pic32mx/lib/size/libm.a(fpfrexp.o)
 .reginfo       0x00000000       0x18 /opt/microchip/xc32/v1.32/bin/bin/../../lib/gcc/pic32mx/4.5.2/../../../../pic32mx/lib/size/libm.a(fpfrexp.o)
 .text          0x00000000        0x0 /opt/microchip/xc32/v1.32/bin/bin/../../lib/gcc/pic32mx/4.5.2/../../../../pic32mx/lib/size/libm.a(fptoul.o)
 .data          0x00000000        0x0 /opt/microchip/xc32/v1.32/bin/bin/../../lib/gcc/pic32mx/4.5.2/../../../../pic32mx/lib/size/libm.a(fptoul.o)
 .bss           0x00000000        0x0 /opt/microchip/xc32/v1.32/bin/bin/../../lib/gcc/pic32mx/4.5.2/../../../../pic32mx/lib/size/libm.a(fptoul.o)
 .reginfo       0x00000000       0x18 /opt/microchip/xc32/v1.32/bin/bin/../../lib/gcc/pic32mx/4.5.2/../../../../pic32mx/lib/size/libm.a(fptoul.o)
 .text          0x00000000        0x0 /opt/microchip/xc32/v1.32/bin/bin/../../lib/gcc/pic32mx/4.5.2/../../../../pic32mx/lib/size/libm.a(__strtof.o)
 .data          0x00000000        0x0 /opt/microchip/xc32/v1.32/bin/bin/../../lib/gcc/pic32mx/4.5.2/../../../../pic32mx/lib/size/libm.a(__strtof.o)
 .bss           0x00000000        0x0 /opt/microchip/xc32/v1.32/bin/bin/../../lib/gcc/pic32mx/4.5.2/../../../../pic32mx/lib/size/libm.a(__strtof.o)
 .reginfo       0x00000000       0x18 /opt/microchip/xc32/v1.32/bin/bin/../../lib/gcc/pic32mx/4.5.2/../../../../pic32mx/lib/size/libm.a(__strtof.o)
 .text          0x00000000        0x0 /opt/microchip/xc32/v1.32/bin/bin/../../lib/gcc/pic32mx/4.5.2/../../../../pic32mx/lib/size/libm.a(negsf2.o)
 .data          0x00000000        0x0 /opt/microchip/xc32/v1.32/bin/bin/../../lib/gcc/pic32mx/4.5.2/../../../../pic32mx/lib/size/libm.a(negsf2.o)
 .bss           0x00000000        0x0 /opt/microchip/xc32/v1.32/bin/bin/../../lib/gcc/pic32mx/4.5.2/../../../../pic32mx/lib/size/libm.a(negsf2.o)
 .reginfo       0x00000000       0x18 /opt/microchip/xc32/v1.32/bin/bin/../../lib/gcc/pic32mx/4.5.2/../../../../pic32mx/lib/size/libm.a(negsf2.o)
 .text          0x00000000        0x0 /opt/microchip/xc32/v1.32/bin/bin/../../lib/gcc/pic32mx/4.5.2/../../../../pic32mx/lib/size/libe.a(_floatdisf.o)
 .data          0x00000000        0x0 /opt/microchip/xc32/v1.32/bin/bin/../../lib/gcc/pic32mx/4.5.2/../../../../pic32mx/lib/size/libe.a(_floatdisf.o)
 .bss           0x00000000        0x0 /opt/microchip/xc32/v1.32/bin/bin/../../lib/gcc/pic32mx/4.5.2/../../../../pic32mx/lib/size/libe.a(_floatdisf.o)
 .reginfo       0x00000000       0x18 /opt/microchip/xc32/v1.32/bin/bin/../../lib/gcc/pic32mx/4.5.2/../../../../pic32mx/lib/size/libe.a(_floatdisf.o)
 .text          0x00000000        0x0 /opt/microchip/xc32/v1.32/bin/bin/../../lib/gcc/pic32mx/4.5.2/../../../../pic32mx/lib/size/libe.a(_ldexpf.o)
 .data          0x00000000        0x0 /opt/microchip/xc32/v1.32/bin/bin/../../lib/gcc/pic32mx/4.5.2/../../../../pic32mx/lib/size/libe.a(_ldexpf.o)
 .bss           0x00000000        0x0 /opt/microchip/xc32/v1.32/bin/bin/../../lib/gcc/pic32mx/4.5.2/../../../../pic32mx/lib/size/libe.a(_ldexpf.o)
 .reginfo       0x00000000       0x18 /opt/microchip/xc32/v1.32/bin/bin/../../lib/gcc/pic32mx/4.5.2/../../../../pic32mx/lib/size/libe.a(_ldexpf.o)
 .data          0x00000000        0x0 /opt/microchip/xc32/v1.32/bin/bin/../../lib/gcc/pic32mx/4.5.2/size/libgcc.a(_lshrdi3.o)
 .bss           0x00000000        0x0 /opt/microchip/xc32/v1.32/bin/bin/../../lib/gcc/pic32mx/4.5.2/size/libgcc.a(_lshrdi3.o)
 .reginfo       0x00000000       0x18 /opt/microchip/xc32/v1.32/bin/bin/../../lib/gcc/pic32mx/4.5.2/size/libgcc.a(_lshrdi3.o)
 .data          0x00000000        0x0 /opt/microchip/xc32/v1.32/bin/bin/../../lib/gcc/pic32mx/4.5.2/size/libgcc.a(_floatundisf.o)
 .bss           0x00000000        0x0 /opt/microchip/xc32/v1.32/bin/bin/../../lib/gcc/pic32mx/4.5.2/size/libgcc.a(_floatundisf.o)
 .reginfo       0x00000000       0x18 /opt/microchip/xc32/v1.32/bin/bin/../../lib/gcc/pic32mx/4.5.2/size/libgcc.a(_floatundisf.o)
 .data          0x00000000        0x0 /opt/microchip/xc32/v1.32/bin/bin/../../lib/gcc/pic32mx/4.5.2/size/libgcc.a(_udivdi3.o)
 .bss           0x00000000        0x0 /opt/microchip/xc32/v1.32/bin/bin/../../lib/gcc/pic32mx/4.5.2/size/libgcc.a(_udivdi3.o)
 .reginfo       0x00000000       0x18 /opt/microchip/xc32/v1.32/bin/bin/../../lib/gcc/pic32mx/4.5.2/size/libgcc.a(_udivdi3.o)
 .data          0x00000000        0x0 /opt/microchip/xc32/v1.32/bin/bin/../../lib/gcc/pic32mx/4.5.2/size/libgcc.a(_umoddi3.o)
 .bss           0x00000000        0x0 /opt/microchip/xc32/v1.32/bin/bin/../../lib/gcc/pic32mx/4.5.2/size/libgcc.a(_umoddi3.o)
 .reginfo       0x00000000       0x18 /opt/microchip/xc32/v1.32/bin/bin/../../lib/gcc/pic32mx/4.5.2/size/libgcc.a(_umoddi3.o)
 .data          0x00000000        0x0 /opt/microchip/xc32/v1.32/bin/bin/../../lib/gcc/pic32mx/4.5.2/size/libgcc.a(floatunsisf.o)
 .bss           0x00000000        0x0 /opt/microchip/xc32/v1.32/bin/bin/../../lib/gcc/pic32mx/4.5.2/size/libgcc.a(floatunsisf.o)
 .reginfo       0x00000000       0x18 /opt/microchip/xc32/v1.32/bin/bin/../../lib/gcc/pic32mx/4.5.2/size/libgcc.a(floatunsisf.o)

Memory Configuration

Name             Origin             Length             Attributes
kseg0_program_mem 0x9d000000         0x0003f000         xr
exception_mem    0x9d03f000         0x00001000
debug_exec_mem   0x9fc00490         0x00000760
kseg0_boot_mem   0x9fc00490         0x00000000
kseg1_boot_mem   0xbfc00000         0x00000490
config3          0xbfc00bf0         0x00000004
config2          0xbfc00bf4         0x00000004
config1          0xbfc00bf8         0x00000004
config0          0xbfc00bfc         0x00000004
kseg1_data_mem   0xa0000000         0x00010000         w !x
sfrs             0xbf800000         0x00100000
configsfrs       0xbfc00bf0         0x00000010
*default*        0x00000000         0xffffffff

Linker script and memory map

LOAD build/pickit3/production/_ext/1248472724/compiler.o
LOAD build/pickit3/production/_ext/1248472724/debug.o
LOAD build/pickit3/production/_ext/1248472724/document.o
LOAD build/pickit3/production/_ext/1248472724/editor.o
LOAD build/pickit3/production/_ext/1248472724/error.o
LOAD build/pickit3/production/_ext/1248472724/exception.o
LOAD build/pickit3/production/_ext/1248472724/file.o
LOAD build/pickit3/production/_ext/1248472724/float.o
LOAD build/pickit3/production/_ext/1248472724/function.o
LOAD build/pickit3/production/_ext/1248472724/globalvars.o
LOAD build/pickit3/production/_ext/1248472724/keyinput.o
LOAD build/pickit3/production/_ext/1248472724/library.o
LOAD build/pickit3/production/_ext/1248472724/linker.o
LOAD build/pickit3/production/_ext/1248472724/main.o
LOAD build/pickit3/production/_ext/1248472724/memory.o
LOAD build/pickit3/production/_ext/1248472724/music.o
LOAD build/pickit3/production/_ext/1248472724/operator.o
LOAD build/pickit3/production/_ext/1248472724/run.o
LOAD build/pickit3/production/_ext/1248472724/statement.o
LOAD build/pickit3/production/_ext/1248472724/string.o
LOAD build/pickit3/production/_ext/1248472724/value.o
LOAD build/pickit3/production/_ext/618058229/crt0.o
LOAD build/pickit3/production/_ext/618058229/fontx2.o
LOAD source/lib_videoout_machikania.X.a
LOAD source/ps2keyboard.X.a
LOAD source/libsdfsio.a
                0x00000001                __MPLAB_BUILD = 0x1
                0x00000400                PROVIDE (_min_stack_size, 0x400)
LOAD /opt/microchip/xc32/v1.32/bin/bin/../../lib/gcc/pic32mx/4.5.2/../../../../pic32mx/lib/./proc/32MX270F256B/processor.o
START GROUP
LOAD /opt/microchip/xc32/v1.32/bin/bin/../../lib/gcc/pic32mx/4.5.2/../../../../pic32mx/lib/size/libmchp_peripheral.a
END GROUP
START GROUP
LOAD /opt/microchip/xc32/v1.32/bin/bin/../../lib/gcc/pic32mx/4.5.2/../../../../pic32mx/lib/size/libmchp_peripheral_32MX150F128B.a
END GROUP
                0x00000001                PROVIDE (_vector_spacing, 0x1)
                0x9d03f000                _ebase_address = 0x9d03f000
                0xbfc00000                _RESET_ADDR = 0xbfc00000
                0xbfc00380                _BEV_EXCPT_ADDR = 0xbfc00380
                0xbfc00480                _DBG_EXCPT_ADDR = 0xbfc00480
                0x9fc00490                _DBG_CODE_ADDR = 0x9fc00490
                0x00000760                _DBG_CODE_SIZE = 0x760
                0x9d03f180                _GEN_EXCPT_ADDR = (_ebase_address + 0x180)

.config_BFC00BF0
                0xbfc00bf0        0x4
 *(.config_BFC00BF0)
 .config_BFC00BF0
                0xbfc00bf0        0x4 build/pickit3/production/_ext/1248472724/main.o

.config_BFC00BF4
                0xbfc00bf4        0x4
 *(.config_BFC00BF4)
 .config_BFC00BF4
                0xbfc00bf4        0x4 build/pickit3/production/_ext/1248472724/main.o

.config_BFC00BF8
                0xbfc00bf8        0x4
 *(.config_BFC00BF8)
 .config_BFC00BF8
                0xbfc00bf8        0x4 build/pickit3/production/_ext/1248472724/main.o

.config_BFC00BFC
                0xbfc00bfc        0x4
 *(.config_BFC00BFC)
 .config_BFC00BFC
                0xbfc00bfc        0x4 build/pickit3/production/_ext/1248472724/main.o

.reset          0xbfc00000      0x1e8
 *(.reset)
 .reset         0xbfc00000      0x1e8 build/pickit3/production/_ext/618058229/crt0.o
                0xbfc00000                _reset
 *(.reset.startup)

.bev_excpt      0xbfc00380       0x10
 *(.bev_handler)
 .bev_handler   0xbfc00380       0x10 build/pickit3/production/_ext/618058229/crt0.o

.dbg_excpt      0xbfc00480        0x0
                0xbfc00480                . = (. + DEFINED (_DEBUGGER)?0x8:0x0)

.dbg_code       0x9fc00490        0x0
                0x9fc00490                . = (. + DEFINED (_DEBUGGER)?_DBG_CODE_SIZE:0x0)

.app_excpt      0x9d03f180       0x10
 *(.gen_handler)
 .gen_handler   0x9d03f180       0x10 build/pickit3/production/_ext/618058229/crt0.o

.vector_0       0x9d03f200        0x0
 *(.vector_0)
                0x00000001                ASSERT (((_vector_spacing == 0x0) || (SIZEOF (.vector_0) <= (_vector_spacing << 0x5))), function at exception vector 0 too large)

.vector_1       0x9d03f220        0x0
 *(.vector_1)
                0x00000001                ASSERT (((_vector_spacing == 0x0) || (SIZEOF (.vector_1) <= (_vector_spacing << 0x5))), function at exception vector 1 too large)

.vector_2       0x9d03f240        0x0
 *(.vector_2)
                0x00000001                ASSERT (((_vector_spacing == 0x0) || (SIZEOF (.vector_2) <= (_vector_spacing << 0x5))), function at exception vector 2 too large)

.vector_3       0x9d03f260        0x0
 *(.vector_3)
                0x00000001                ASSERT (((_vector_spacing == 0x0) || (SIZEOF (.vector_3) <= (_vector_spacing << 0x5))), function at exception vector 3 too large)

.vector_4       0x9d03f280        0x0
 *(.vector_4)
                0x00000001                ASSERT (((_vector_spacing == 0x0) || (SIZEOF (.vector_4) <= (_vector_spacing << 0x5))), function at exception vector 4 too large)

.vector_5       0x9d03f2a0        0x0
 *(.vector_5)
                0x00000001                ASSERT (((_vector_spacing == 0x0) || (SIZEOF (.vector_5) <= (_vector_spacing << 0x5))), function at exception vector 5 too large)

.vector_6       0x9d03f2c0        0x8
 *(.vector_6)
 .vector_6      0x9d03f2c0        0x8 source/lib_videoout_machikania.X.a(videoout.o)
                0x9d03f2c0                __vector_dispatch_6
                0x00000001                ASSERT (((_vector_spacing == 0x0) || (SIZEOF (.vector_6) <= (_vector_spacing << 0x5))), function at exception vector 6 too large)

.vector_7       0x9d03f2e0        0x0
 *(.vector_7)
                0x00000001                ASSERT (((_vector_spacing == 0x0) || (SIZEOF (.vector_7) <= (_vector_spacing << 0x5))), function at exception vector 7 too large)

.vector_8       0x9d03f300        0x8
 *(.vector_8)
 .vector_8      0x9d03f300        0x8 source/lib_videoout_machikania.X.a(videoout.o)
                0x9d03f300                __vector_dispatch_8
                0x00000001                ASSERT (((_vector_spacing == 0x0) || (SIZEOF (.vector_8) <= (_vector_spacing << 0x5))), function at exception vector 8 too large)

.vector_9       0x9d03f320        0x0
 *(.vector_9)
                0x00000001                ASSERT (((_vector_spacing == 0x0) || (SIZEOF (.vector_9) <= (_vector_spacing << 0x5))), function at exception vector 9 too large)

.vector_10      0x9d03f340        0x8
 *(.vector_10)
 .vector_10     0x9d03f340        0x8 source/lib_videoout_machikania.X.a(videoout.o)
                0x9d03f340                __vector_dispatch_10
                0x00000001                ASSERT (((_vector_spacing == 0x0) || (SIZEOF (.vector_10) <= (_vector_spacing << 0x5))), function at exception vector 10 too large)

.vector_11      0x9d03f360        0x0
 *(.vector_11)
                0x00000001                ASSERT (((_vector_spacing == 0x0) || (SIZEOF (.vector_11) <= (_vector_spacing << 0x5))), function at exception vector 11 too large)

.vector_12      0x9d03f380        0x0
 *(.vector_12)
                0x00000001                ASSERT (((_vector_spacing == 0x0) || (SIZEOF (.vector_12) <= (_vector_spacing << 0x5))), function at exception vector 12 too large)

.vector_13      0x9d03f3a0        0x0
 *(.vector_13)
                0x00000001                ASSERT (((_vector_spacing == 0x0) || (SIZEOF (.vector_13) <= (_vector_spacing << 0x5))), function at exception vector 13 too large)

.vector_14      0x9d03f3c0        0x8
 *(.vector_14)
 .vector_14     0x9d03f3c0        0x8 source/lib_videoout_machikania.X.a(videoout.o)
                0x9d03f3c0                __vector_dispatch_14
                0x00000001                ASSERT (((_vector_spacing == 0x0) || (SIZEOF (.vector_14) <= (_vector_spacing << 0x5))), function at exception vector 14 too large)

.vector_15      0x9d03f3e0        0x0
 *(.vector_15)
                0x00000001                ASSERT (((_vector_spacing == 0x0) || (SIZEOF (.vector_15) <= (_vector_spacing << 0x5))), function at exception vector 15 too large)

.vector_16      0x9d03f400        0x8
 *(.vector_16)
 .vector_16     0x9d03f400        0x8 build/pickit3/production/_ext/1248472724/music.o
                0x9d03f400                __vector_dispatch_16
                0x00000001                ASSERT (((_vector_spacing == 0x0) || (SIZEOF (.vector_16) <= (_vector_spacing << 0x5))), function at exception vector 16 too large)

.vector_17      0x9d03f420        0x0
 *(.vector_17)
                0x00000001                ASSERT (((_vector_spacing == 0x0) || (SIZEOF (.vector_17) <= (_vector_spacing << 0x5))), function at exception vector 17 too large)

.vector_18      0x9d03f440        0x0
 *(.vector_18)
                0x00000001                ASSERT (((_vector_spacing == 0x0) || (SIZEOF (.vector_18) <= (_vector_spacing << 0x5))), function at exception vector 18 too large)

.vector_19      0x9d03f460        0x0
 *(.vector_19)
                0x00000001                ASSERT (((_vector_spacing == 0x0) || (SIZEOF (.vector_19) <= (_vector_spacing << 0x5))), function at exception vector 19 too large)

.vector_20      0x9d03f480        0x8
 *(.vector_20)
 .vector_20     0x9d03f480        0x8 source/ps2keyboard.X.a(ps2keyboard.o)
                0x9d03f480                __vector_dispatch_20
                0x00000001                ASSERT (((_vector_spacing == 0x0) || (SIZEOF (.vector_20) <= (_vector_spacing << 0x5))), function at exception vector 20 too large)

.vector_21      0x9d03f4a0        0x0
 *(.vector_21)
                0x00000001                ASSERT (((_vector_spacing == 0x0) || (SIZEOF (.vector_21) <= (_vector_spacing << 0x5))), function at exception vector 21 too large)

.vector_22      0x9d03f4c0        0x0
 *(.vector_22)
                0x00000001                ASSERT (((_vector_spacing == 0x0) || (SIZEOF (.vector_22) <= (_vector_spacing << 0x5))), function at exception vector 22 too large)

.vector_23      0x9d03f4e0        0x0
 *(.vector_23)
                0x00000001                ASSERT (((_vector_spacing == 0x0) || (SIZEOF (.vector_23) <= (_vector_spacing << 0x5))), function at exception vector 23 too large)

.vector_24      0x9d03f500        0x0
 *(.vector_24)
                0x00000001                ASSERT (((_vector_spacing == 0x0) || (SIZEOF (.vector_24) <= (_vector_spacing << 0x5))), function at exception vector 24 too large)

.vector_25      0x9d03f520        0x0
 *(.vector_25)
                0x00000001                ASSERT (((_vector_spacing == 0x0) || (SIZEOF (.vector_25) <= (_vector_spacing << 0x5))), function at exception vector 25 too large)

.vector_26      0x9d03f540        0x0
 *(.vector_26)
                0x00000001                ASSERT (((_vector_spacing == 0x0) || (SIZEOF (.vector_26) <= (_vector_spacing << 0x5))), function at exception vector 26 too large)

.vector_27      0x9d03f560        0x0
 *(.vector_27)
                0x00000001                ASSERT (((_vector_spacing == 0x0) || (SIZEOF (.vector_27) <= (_vector_spacing << 0x5))), function at exception vector 27 too large)

.vector_28      0x9d03f580        0x0
 *(.vector_28)
                0x00000001                ASSERT (((_vector_spacing == 0x0) || (SIZEOF (.vector_28) <= (_vector_spacing << 0x5))), function at exception vector 28 too large)

.vector_29      0x9d03f5a0        0x0
 *(.vector_29)
                0x00000001                ASSERT (((_vector_spacing == 0x0) || (SIZEOF (.vector_29) <= (_vector_spacing << 0x5))), function at exception vector 29 too large)

.vector_30      0x9d03f5c0        0x0
 *(.vector_30)
                0x00000001                ASSERT (((_vector_spacing == 0x0) || (SIZEOF (.vector_30) <= (_vector_spacing << 0x5))), function at exception vector 30 too large)

.vector_31      0x9d03f5e0        0x0
 *(.vector_31)
                0x00000001                ASSERT (((_vector_spacing == 0x0) || (SIZEOF (.vector_31) <= (_vector_spacing << 0x5))), function at exception vector 31 too large)

.vector_32      0x9d03f600        0x0
 *(.vector_32)
                0x00000001                ASSERT (((_vector_spacing == 0x0) || (SIZEOF (.vector_32) <= (_vector_spacing << 0x5))), function at exception vector 32 too large)

.vector_33      0x9d03f620        0x0
 *(.vector_33)
                0x00000001                ASSERT (((_vector_spacing == 0x0) || (SIZEOF (.vector_33) <= (_vector_spacing << 0x5))), function at exception vector 33 too large)

.vector_34      0x9d03f640        0x8
 *(.vector_34)
 .vector_34     0x9d03f640        0x8 source/ps2keyboard.X.a(ps2keyboard.o)
                0x9d03f640                __vector_dispatch_34
                0x00000001                ASSERT (((_vector_spacing == 0x0) || (SIZEOF (.vector_34) <= (_vector_spacing << 0x5))), function at exception vector 34 too large)

.vector_35      0x9d03f660        0x0
 *(.vector_35)
                0x00000001                ASSERT (((_vector_spacing == 0x0) || (SIZEOF (.vector_35) <= (_vector_spacing << 0x5))), function at exception vector 35 too large)

.vector_36      0x9d03f680        0x0
 *(.vector_36)
                0x00000001                ASSERT (((_vector_spacing == 0x0) || (SIZEOF (.vector_36) <= (_vector_spacing << 0x5))), function at exception vector 36 too large)

.vector_37      0x9d03f6a0        0x0
 *(.vector_37)
                0x00000001                ASSERT (((_vector_spacing == 0x0) || (SIZEOF (.vector_37) <= (_vector_spacing << 0x5))), function at exception vector 37 too large)

.vector_38      0x9d03f6c0        0x0
 *(.vector_38)
                0x00000001                ASSERT (((_vector_spacing == 0x0) || (SIZEOF (.vector_38) <= (_vector_spacing << 0x5))), function at exception vector 38 too large)

.vector_39      0x9d03f6e0        0x0
 *(.vector_39)
                0x00000001                ASSERT (((_vector_spacing == 0x0) || (SIZEOF (.vector_39) <= (_vector_spacing << 0x5))), function at exception vector 39 too large)

.vector_40      0x9d03f700        0x0
 *(.vector_40)
                0x00000001                ASSERT (((_vector_spacing == 0x0) || (SIZEOF (.vector_40) <= (_vector_spacing << 0x5))), function at exception vector 40 too large)

.vector_41      0x9d03f720        0x0
 *(.vector_41)
                0x00000001                ASSERT (((_vector_spacing == 0x0) || (SIZEOF (.vector_41) <= (_vector_spacing << 0x5))), function at exception vector 41 too large)

.vector_42      0x9d03f740        0x0
 *(.vector_42)
                0x00000001                ASSERT (((_vector_spacing == 0x0) || (SIZEOF (.vector_42) <= (_vector_spacing << 0x5))), function at exception vector 42 too large)

.vector_43      0x9d03f760        0x0
 *(.vector_43)
                0x00000001                ASSERT (((_vector_spacing == 0x0) || (SIZEOF (.vector_43) <= (_vector_spacing << 0x5))), function at exception vector 43 too large)

.vector_44      0x9d03f780        0x0
 *(.vector_44)
                0x00000001                ASSERT (((_vector_spacing == 0x0) || (SIZEOF (.vector_44) <= (_vector_spacing << 0x5))), function at exception vector 44 too large)

.vector_45      0x9d03f7a0        0x0
 *(.vector_45)
                0x00000001                ASSERT (((_vector_spacing == 0x0) || (SIZEOF (.vector_45) <= (_vector_spacing << 0x5))), function at exception vector 45 too large)

.vector_46      0x9d03f7c0        0x0
 *(.vector_46)
                0x00000001                ASSERT (((_vector_spacing == 0x0) || (SIZEOF (.vector_46) <= (_vector_spacing << 0x5))), function at exception vector 46 too large)

.vector_47      0x9d03f7e0        0x0
 *(.vector_47)
                0x00000001                ASSERT (((_vector_spacing == 0x0) || (SIZEOF (.vector_47) <= (_vector_spacing << 0x5))), function at exception vector 47 too large)

.vector_48      0x9d03f800        0x0
 *(.vector_48)
                0x00000001                ASSERT (((_vector_spacing == 0x0) || (SIZEOF (.vector_48) <= (_vector_spacing << 0x5))), function at exception vector 48 too large)

.vector_49      0x9d03f820        0x0
 *(.vector_49)
                0x00000001                ASSERT (((_vector_spacing == 0x0) || (SIZEOF (.vector_49) <= (_vector_spacing << 0x5))), function at exception vector 49 too large)

.vector_50      0x9d03f840        0x0
 *(.vector_50)
                0x00000001                ASSERT (((_vector_spacing == 0x0) || (SIZEOF (.vector_50) <= (_vector_spacing << 0x5))), function at exception vector 50 too large)

.vector_51      0x9d03f860        0x0
 *(.vector_51)
                0x00000001                ASSERT (((_vector_spacing == 0x0) || (SIZEOF (.vector_51) <= (_vector_spacing << 0x5))), function at exception vector 51 too large)

.vector_52      0x9d03f880        0x0
 *(.vector_52)
                0x00000001                ASSERT (((_vector_spacing == 0x0) || (SIZEOF (.vector_52) <= (_vector_spacing << 0x5))), function at exception vector 52 too large)

.vector_53      0x9d03f8a0        0x0
 *(.vector_53)
                0x00000001                ASSERT (((_vector_spacing == 0x0) || (SIZEOF (.vector_53) <= (_vector_spacing << 0x5))), function at exception vector 53 too large)

.vector_54      0x9d03f8c0        0x0
 *(.vector_54)
                0x00000001                ASSERT (((_vector_spacing == 0x0) || (SIZEOF (.vector_54) <= (_vector_spacing << 0x5))), function at exception vector 54 too large)

.vector_55      0x9d03f8e0        0x0
 *(.vector_55)
                0x00000001                ASSERT (((_vector_spacing == 0x0) || (SIZEOF (.vector_55) <= (_vector_spacing << 0x5))), function at exception vector 55 too large)

.vector_56      0x9d03f900        0x0
 *(.vector_56)
                0x00000001                ASSERT (((_vector_spacing == 0x0) || (SIZEOF (.vector_56) <= (_vector_spacing << 0x5))), function at exception vector 56 too large)

.vector_57      0x9d03f920        0x0
 *(.vector_57)
                0x00000001                ASSERT (((_vector_spacing == 0x0) || (SIZEOF (.vector_57) <= (_vector_spacing << 0x5))), function at exception vector 57 too large)

.vector_58      0x9d03f940        0x0
 *(.vector_58)
                0x00000001                ASSERT (((_vector_spacing == 0x0) || (SIZEOF (.vector_58) <= (_vector_spacing << 0x5))), function at exception vector 58 too large)

.vector_59      0x9d03f960        0x0
 *(.vector_59)
                0x00000001                ASSERT (((_vector_spacing == 0x0) || (SIZEOF (.vector_59) <= (_vector_spacing << 0x5))), function at exception vector 59 too large)

.vector_60      0x9d03f980        0x0
 *(.vector_60)
                0x00000001                ASSERT (((_vector_spacing == 0x0) || (SIZEOF (.vector_60) <= (_vector_spacing << 0x5))), function at exception vector 60 too large)

.vector_61      0x9d03f9a0        0x0
 *(.vector_61)
                0x00000001                ASSERT (((_vector_spacing == 0x0) || (SIZEOF (.vector_61) <= (_vector_spacing << 0x5))), function at exception vector 61 too large)

.vector_62      0x9d03f9c0        0x0
 *(.vector_62)
                0x00000001                ASSERT (((_vector_spacing == 0x0) || (SIZEOF (.vector_62) <= (_vector_spacing << 0x5))), function at exception vector 62 too large)

.vector_63      0x9d03f9e0        0x0
 *(.vector_63)
                0x00000001                ASSERT (((_vector_spacing == 0x0) || (SIZEOF (.vector_63) <= (_vector_spacing << 0x5))), function at exception vector 63 too large)

.startup
 *(.startup)

.text           0x9d000000        0x0
 *(.stub .gnu.linkonce.t.*)
 *(.text.*personality*)
 *(.mips16.fn.*)
 *(.mips16.call.*)
 *(.gnu.warning)
                0x9d000000                . = ALIGN (0x4)

.init           0x9d000000        0x0
 *crti.o(.init)
 *crtbegin.o(.init)
 *(EXCLUDE_FILE(*crtn.o *crtend?.o *crtend.o) .init)
 *crtend.o(.init)
 *crtn.o(.init)
                0x9d000000                . = ALIGN (0x4)

.fini           0x9d000000        0x0
 *(.fini)
                0x9d000000                . = ALIGN (0x4)

.preinit_array  0x9d000000        0x0
                0x9d000000                PROVIDE (__preinit_array_start, .)
 *(.preinit_array)
                0x9d000000                PROVIDE (__preinit_array_end, .)
                0x9d000000                . = ALIGN (0x4)

.init_array     0x9d000000        0x0
                0x9d000000                PROVIDE (__init_array_start, .)
 *(SORT(.init_array.*))
 *(.init_array)
                0x9d000000                PROVIDE (__init_array_end, .)
                0x9d000000                . = ALIGN (0x4)

.fini_array     0x9d000000        0x0
                0x9d000000                PROVIDE (__fini_array_start, .)
 *(SORT(.fini_array.*))
 *(.fini_array)
                0x9d000000                PROVIDE (__fini_array_end, .)
                0x9d000000                . = ALIGN (0x4)

.ctors          0x9d000000        0x0
 *crtbegin.o(.ctors)
 *crtbegin?.o(.ctors)
 *(EXCLUDE_FILE(*crtend?.o *crtend.o) .ctors)
 *(SORT(.ctors.*))
 *(.ctors)
                0x9d000000                . = ALIGN (0x4)

.dtors          0x9d000000        0x0
 *crtbegin.o(.dtors)
 *crtbegin?.o(.dtors)
 *(EXCLUDE_FILE(*crtend?.o *crtend.o) .dtors)
 *(SORT(.dtors.*))
 *(.dtors)
                0x9d000000                . = ALIGN (0x4)

.rodata         0x9d000000        0x0
 *(.gnu.linkonce.r.*)
 *(.rodata1)
                0x9d000000                . = ALIGN (0x4)

.sdata2         0x9fc00490        0x0
 *(.sdata2 .sdata2.* .gnu.linkonce.s2.*)
                0x9fc00490                . = ALIGN (0x4)

.sbss2          0x9fc00490        0x0
 *(.sbss2 .sbss2.* .gnu.linkonce.sb2.*)
                0x9fc00490                . = ALIGN (0x4)

.eh_frame_hdr
 *(.eh_frame_hdr)
                0x9fc00490                . = ALIGN (0x4)

.eh_frame
 *(.eh_frame)
                0x9fc00490                . = ALIGN (0x4)

.gcc_except_table
 *(.gcc_except_table .gcc_except_table.*)
                0x9fc00490                . = ALIGN (0x4)

.dbg_data       0xa0000000        0x0
                0xa0000000                . = (. + DEFINED (_DEBUGGER)?0x200:0x0)

.jcr            0xa0000000        0x0
 *(.jcr)
                0xa0000000                . = ALIGN (0x4)

.eh_frame       0xa0000000       0x30
 *(.eh_frame)
 .eh_frame      0xa0000000       0x20 /opt/microchip/xc32/v1.32/bin/bin/../../lib/gcc/pic32mx/4.5.2/size/libgcc.a(_udivdi3.o)
 .eh_frame      0xa0000020       0x10 /opt/microchip/xc32/v1.32/bin/bin/../../lib/gcc/pic32mx/4.5.2/size/libgcc.a(_umoddi3.o)
                0xa0000030                . = ALIGN (0x4)

.gcc_except_table
 *(.gcc_except_table .gcc_except_table.*)
                0xa0000030                . = ALIGN (0x4)

.persist        0xa0000030        0x0
                0xa0000030                _persist_begin = .
 *(.persist .persist.*)
 *(.pbss .pbss.*)
                0xa0000030                . = ALIGN (0x4)
                0xa0000030                _persist_end = .

.data           0xa0000030        0x0
 *(.gnu.linkonce.d.*)
 *(.data1)
                0xa0000030                . = ALIGN (0x4)
                0xa0000030                . = .
                0xa0008020                _gp = (ALIGN (0x10) + 0x7ff0)

.got            0xa0000030        0x0
 *(.got.plt)
 *(.got)
                0xa0000030                . = ALIGN (0x4)

.sdata          0xa0000030       0x1c
                0xa0000030                _sdata_begin = .
 *(.sdata .sdata.* .gnu.linkonce.s.*)
 .sdata         0xa0000030        0x4 build/pickit3/production/_ext/1248472724/library.o
 .sdata         0xa0000034        0x1 build/pickit3/production/_ext/618058229/fontx2.o
                0xa0000034                ptpoint
 *fill*         0xa0000035        0x3 
 .sdata         0xa0000038        0xc source/libsdfsio.a(FSIO.o)
                0xa0000038                gLastFATSectorRead
                0xa000003c                gLastDataSectorRead
                0xa0000040                cwdptr
 .sdata         0xa0000044        0x4 /opt/microchip/xc32/v1.32/bin/bin/../../lib/gcc/pic32mx/4.5.2/../../../../pic32mx/lib/size/libc.a(_iob.o)
                0xa0000044                _Files
 .sdata         0xa0000048        0x4 /opt/microchip/xc32/v1.32/bin/bin/../../lib/gcc/pic32mx/4.5.2/../../../../pic32mx/lib/size/libpic32.a(xc32_uart.o)
                0xa0000048                __XC_UART
                0xa000004c                . = ALIGN (0x4)
                0xa000004c                _sdata_end = .

.lit8
 *(.lit8)

.lit4
 *(.lit4)
                0xa000004c                . = ALIGN (0x4)
                0xa000004c                _data_end = .
                0xa000004c                _bss_begin = .

.sbss           0xa000004c      0x220
                0xa000004c                _sbss_begin = .
 *(.dynsbss)
 *(.sbss .sbss.* .gnu.linkonce.sb.*)
 .sbss          0xa000004c        0x4 build/pickit3/production/_ext/1248472724/compiler.o
 .sbss          0xa0000050        0x8 build/pickit3/production/_ext/1248472724/error.o
 .sbss          0xa0000058       0x10 build/pickit3/production/_ext/1248472724/file.o
 .sbss          0xa0000068       0x18 build/pickit3/production/_ext/1248472724/library.o
 .sbss          0xa0000080       0x30 build/pickit3/production/_ext/1248472724/music.o
 .sbss          0xa00000b0        0xc source/libsdfsio.a(FSIO.o)
                0xa00000b0                gNeedFATWrite
                0xa00000b4                gBufferOwner
                0xa00000b8                gNeedDataWrite
                0xa00000b9                nextClusterIsLast
                0xa00000ba                gBufferZeroed
                0xa00000bb                recache
 .sbss          0xa00000bc       0x1c source/libsdfsio.a(SD-SPI.o)
 .sbss          0xa00000d8        0x4 /opt/microchip/xc32/v1.32/bin/bin/../../lib/gcc/pic32mx/4.5.2/../../../../pic32mx/lib/size/libpic32.a(errno.o)
                0xa00000d8                errno
 .sbss          0xa00000dc        0x1 /opt/microchip/xc32/v1.32/bin/bin/../../lib/gcc/pic32mx/4.5.2/../../../../pic32mx/lib/size/libc.a(_iob.o)
                0xa00000dc                _outdone
 *(.scommon)
 *fill*         0xa00000dd        0x3 
 .scommon       0xa00000e0        0x4 build/pickit3/production/_ext/1248472724/document.o
                0xa00000e0                buff
 .scommon       0xa00000e4       0x82 build/pickit3/production/_ext/1248472724/editor.o
                0xa00000e4                clipsize
                0xa00000e8                editormallocp
                0xa00000ec                cx2
                0xa00000f0                cwdpath
                0xa00000f4                clipboard
                0xa00000f8                disptopix_t
                0xa00000fc                cy
                0xa0000100                TBufstart
                0xa0000104                disptopbp_t
                0xa0000108                line_no_t
                0xa000010c                line_no1
                0xa0000110                cx
                0xa0000114                line_no
                0xa0000118                cx_t
                0xa000011c                TextBuffer
                0xa0000120                cursorbp_t
                0xa0000124                cursorbp1
                0xa0000128                cy_t
                0xa000012c                cursorbp
                0xa0000130                cx1
                0xa0000134                disptopix
                0xa0000138                undobuf_top
                0xa000013c                cursorix1
                0xa0000140                cy1
                0xa0000144                undobuf
                0xa0000148                num
                0xa000014c                cursorix_t
                0xa0000150                filenames
                0xa0000154                disptopbp
                0xa0000158                edited
                0xa000015c                undobuf_used
                0xa0000160                filebuf
                0xa0000164                cursorix
 *fill*         0xa0000166        0x2 
 .scommon       0xa0000168       0x61 build/pickit3/production/_ext/1248472724/globalvars.o
                0xa0000168                g_sdepth
                0xa000016c                g_temp_area_used
                0xa0000170                g_source
                0xa0000174                g_srcpos
                0xa0000178                g_line
                0xa000017c                g_object
                0xa0000180                g_fileline
                0xa0000184                g_s6
                0xa0000188                g_rnd_seed
                0xa000018c                g_graphic_area
                0xa0000190                g_objmax
                0xa0000194                g_use_graphic
                0xa0000198                g_libparams
                0xa000019c                g_intconst
                0xa00001a0                g_objpos
                0xa00001a4                g_maxsdepth
                0xa00001a8                g_pcg_font
                0xa00001ac                g_heap_mem
                0xa00001b0                g_lastvar
                0xa00001b4                g_max_mem
                0xa00001b8                g_disable_break
                0xa00001bc                g_end_addr
                0xa00001c0                g_temp
                0xa00001c4                g_gp
                0xa00001c8                g_valueisconst
 *fill*         0xa00001c9        0x3 
 .scommon       0xa00001cc        0xa build/pickit3/production/_ext/1248472724/keyinput.o
                0xa00001cc                blinktimer
                0xa00001d0                insertmode
                0xa00001d4                blinkcolor
                0xa00001d5                blinkchar
 *fill*         0xa00001d6        0x2 
 .scommon       0xa00001d8        0x4 build/pickit3/production/_ext/1248472724/linker.o
                0xa00001d8                g_label
 .scommon       0xa00001dc        0x4 build/pickit3/production/_ext/1248472724/operator.o
                0xa00001dc                g_last_op
 .scommon       0xa00001e0        0x4 build/pickit3/production/_ext/618058229/fontx2.o
                0xa00001e0                pcgram
 .scommon       0xa00001e4       0x1c source/lib_videoout_machikania.X.a(videoout.o)
                0xa00001e4                drawcount
                0xa00001e8                VRAMp
                0xa00001ec                bgcolor
                0xa00001f0                twidth
                0xa00001f1                graphmode
                0xa00001f2                LineCount
                0xa00001f4                drawing
                0xa00001f8                gVRAM
                0xa00001fc                fontp
 .scommon       0xa0000200        0x8 source/lib_videoout_machikania.X.a(textvideolib.o)
                0xa0000200                cursorcolor
                0xa0000204                cursor
 .scommon       0xa0000208       0x38 source/ps2keyboard.X.a(ps2keyboard.o)
                0xa0000208                ps2receiveError
                0xa0000209                ps2sendError
                0xa000020a                keytype
                0xa000020c                ps2sendcomdata
                0xa0000210                ps2sending
                0xa0000211                ps2receivecommand
                0xa0000212                ps2status
                0xa0000214                ps2shiftkey_a
                0xa0000216                senddata
                0xa0000218                ps2sendcombyte
                0xa0000219                sendcount
                0xa000021a                ps2shiftkey
                0xa000021c                ps2receivetime
                0xa0000220                vkey
                0xa0000224                keycodebufp2
                0xa0000228                receivedata
                0xa0000229                ps2receivecommandflag
                0xa000022a                receivecount
                0xa000022c                ps2statuscount
                0xa0000230                scancodebufp2
                0xa0000234                lockkey
                0xa0000238                scancodebufp1
                0xa000023c                keycodebufp1
 .scommon       0xa0000240       0x24 source/libsdfsio.a(FSIO.o)
                0xa0000240                gFileSlotOpen
                0xa0000242                gTimeCrtMS
                0xa0000244                asciiFilename
                0xa0000248                gTimeCrtTime
                0xa000024c                FatRootDirClusterValue
                0xa0000250                gTimeWrtDate
                0xa0000252                fileNameLength
                0xa0000254                gTimeCrtDate
                0xa0000258                TempClusterCalc
                0xa000025c                dirCleared
                0xa000025e                gTimeAccDate
                0xa0000260                FSerrno
                0xa0000262                gTimeWrtTime
 .scommon       0xa0000264        0x7 source/libsdfsio.a(SD-SPI.o)
                0xa0000264                MDD_SDSPI_finalLBA
                0xa0000268                gMediaSectorSize
                0xa000026a                gSDMode
                0xa000026b                _sbss_end = .
                0xa000026c                . = ALIGN (0x4)
 *fill*         0xa000026b        0x1 

.bss            0xa000026c     0x16b4
 *(.dynbss)
 *(COMMON)
 COMMON         0xa000026c       0x1d build/pickit3/production/_ext/1248472724/editor.o
                0xa000026c                currentfile
                0xa000027c                tempfile
 *fill*         0xa0000289        0x3 
 COMMON         0xa000028c      0x180 build/pickit3/production/_ext/1248472724/globalvars.o
                0xa000028c                g_var_size
                0xa00002ec                g_var_mem
                0xa00003ac                g_var_pointer
 COMMON         0xa000040c      0x100 build/pickit3/production/_ext/1248472724/keyinput.o
                0xa000040c                lineinputbuf
 COMMON         0xa000050c      0xd71 source/lib_videoout_machikania.X.a(videoout.o)
                0xa000050c                ClTable
                0xa000090c                gClTable
                0xa0000a0c                TVRAM
 *fill*         0xa000127d        0x3 
 COMMON         0xa0001280      0x130 source/ps2keyboard.X.a(ps2keyboard.o)
                0xa0001280                scancodebuf
                0xa0001290                keycodebuf
                0xa00012b0                ps2keystatus
 COMMON         0xa00013b0      0x56e source/libsdfsio.a(FSIO.o)
                0xa00013b0                gDataBuffer
                0xa00015b0                tempDirectoryString
                0xa00015c0                cwd
                0xa00015fc                tempCWDobj
                0xa0001638                gFATBuffer
                0xa0001838                gFileArray
                0xa00018b0                gDiskData
                0xa00018d8                gFileTemp
                0xa0001914                defaultArray
                0xa0001920                . = ALIGN ((. != 0x0)?0x4:0x1)
 *fill*         0xa000191e        0x2 
                0xa0001920                . = ALIGN (0x4)
                0xa0001920                _end = .
                0xa0001920                _bss_end = .
                0x00010000                _bmxdudba_address = 0x10000
                0x00010000                _bmxdupba_address = 0x10000

/DISCARD/
 *(.pdr)
 *(.rel.dyn)
 *(.note.GNU-stack)
 *(.note.GNU-stack)
 *(.gnu_debuglink)
 *(.gnu.lto_*)
 *(.discard)

.gptab.sdata
 *(.gptab.data)
 *(.gptab.sdata)

.gptab.sbss
 *(.gptab.bss)
 *(.gptab.sbss)

.mdebug.abi32   0xa0001920        0x0
 *(.mdebug.abi32)
 .mdebug.abi32  0xa0001920        0x0 build/pickit3/production/_ext/1248472724/compiler.o
 .mdebug.abi32  0xa0001920        0x0 build/pickit3/production/_ext/1248472724/debug.o
 .mdebug.abi32  0xa0001920        0x0 build/pickit3/production/_ext/1248472724/document.o
 .mdebug.abi32  0xa0001920        0x0 build/pickit3/production/_ext/1248472724/editor.o
 .mdebug.abi32  0xa0001920        0x0 build/pickit3/production/_ext/1248472724/error.o
 .mdebug.abi32  0xa0001920        0x0 build/pickit3/production/_ext/1248472724/exception.o
 .mdebug.abi32  0xa0001920        0x0 build/pickit3/production/_ext/1248472724/file.o
 .mdebug.abi32  0xa0001920        0x0 build/pickit3/production/_ext/1248472724/float.o
 .mdebug.abi32  0xa0001920        0x0 build/pickit3/production/_ext/1248472724/function.o
 .mdebug.abi32  0xa0001920        0x0 build/pickit3/production/_ext/1248472724/globalvars.o
 .mdebug.abi32  0xa0001920        0x0 build/pickit3/production/_ext/1248472724/keyinput.o
 .mdebug.abi32  0xa0001920        0x0 build/pickit3/production/_ext/1248472724/library.o
 .mdebug.abi32  0xa0001920        0x0 build/pickit3/production/_ext/1248472724/linker.o
 .mdebug.abi32  0xa0001920        0x0 build/pickit3/production/_ext/1248472724/main.o
 .mdebug.abi32  0xa0001920        0x0 build/pickit3/production/_ext/1248472724/memory.o
 .mdebug.abi32  0xa0001920        0x0 build/pickit3/production/_ext/1248472724/music.o
 .mdebug.abi32  0xa0001920        0x0 build/pickit3/production/_ext/1248472724/operator.o
 .mdebug.abi32  0xa0001920        0x0 build/pickit3/production/_ext/1248472724/run.o
 .mdebug.abi32  0xa0001920        0x0 build/pickit3/production/_ext/1248472724/statement.o
 .mdebug.abi32  0xa0001920        0x0 build/pickit3/production/_ext/1248472724/string.o
 .mdebug.abi32  0xa0001920        0x0 build/pickit3/production/_ext/1248472724/value.o
 .mdebug.abi32  0xa0001920        0x0 build/pickit3/production/_ext/618058229/fontx2.o
 .mdebug.abi32  0xa0001920        0x0 source/lib_videoout_machikania.X.a(videoout.o)
 .mdebug.abi32  0xa0001920        0x0 source/lib_videoout_machikania.X.a(textvideolib.o)
 .mdebug.abi32  0xa0001920        0x0 source/lib_videoout_machikania.X.a(graphvideolib.o)
 .mdebug.abi32  0xa0001920        0x0 source/ps2keyboard.X.a(ps2keyboard.o)
 .mdebug.abi32  0xa0001920        0x0 source/libsdfsio.a(FSIO.o)
 .mdebug.abi32  0xa0001920        0x0 source/libsdfsio.a(SD-SPI.o)
 .mdebug.abi32  0xa0001920        0x0 /opt/microchip/xc32/v1.32/bin/bin/../../lib/gcc/pic32mx/4.5.2/../../../../pic32mx/lib/size/libmchp_peripheral_32MX150F128B.a(soft_reset_lib.o)
 .mdebug.abi32  0xa0001920        0x0 /opt/microchip/xc32/v1.32/bin/bin/../../lib/gcc/pic32mx/4.5.2/../../../../pic32mx/lib/size/libmchp_peripheral_32MX150F128B.a(osc_config_lib.o)
 .mdebug.abi32  0xa0001920        0x0 /opt/microchip/xc32/v1.32/bin/bin/../../lib/gcc/pic32mx/4.5.2/../../../../pic32mx/lib/size/libmchp_peripheral_32MX150F128B.a(int_disable_interrupts_lib.o)
 .mdebug.abi32  0xa0001920        0x0 /opt/microchip/xc32/v1.32/bin/bin/../../lib/gcc/pic32mx/4.5.2/../../../../pic32mx/lib/size/libmchp_peripheral_32MX150F128B.a(int_restore_interrupts_lib.o)
 .mdebug.abi32  0xa0001920        0x0 /opt/microchip/xc32/v1.32/bin/bin/../../lib/gcc/pic32mx/4.5.2/../../../../pic32mx/lib/size/libmchp_peripheral_32MX150F128B.a(int_enable_mv_int_lib.o)
 .mdebug.abi32  0xa0001920        0x0 /opt/microchip/xc32/v1.32/bin/bin/../../lib/gcc/pic32mx/4.5.2/../../../../pic32mx/lib/size/libmchp_peripheral_32MX150F128B.a(spi_getc_spi2_lib_legacy.o)
 .mdebug.abi32  0xa0001920        0x0 /opt/microchip/xc32/v1.32/bin/bin/../../lib/gcc/pic32mx/4.5.2/../../../../pic32mx/lib/size/libmchp_peripheral_32MX150F128B.a(spi_open_spi2_lib_legacy.o)
 .mdebug.abi32  0xa0001920        0x0 /opt/microchip/xc32/v1.32/bin/bin/../../lib/gcc/pic32mx/4.5.2/../../../../pic32mx/lib/size/libmchp_peripheral_32MX150F128B.a(spi_brg_tbl_lib_legacy.o)
 .mdebug.abi32  0xa0001920        0x0 /opt/microchip/xc32/v1.32/bin/bin/../../lib/gcc/pic32mx/4.5.2/../../../../pic32mx/lib/size/libmchp_peripheral_32MX150F128B.a(nvm_write_word_lib.o)
 .mdebug.abi32  0xa0001920        0x0 /opt/microchip/xc32/v1.32/bin/bin/../../lib/gcc/pic32mx/4.5.2/../../../../pic32mx/lib/size/libmchp_peripheral_32MX150F128B.a(int_enable_interrupts_lib.o)
 .mdebug.abi32  0xa0001920        0x0 /opt/microchip/xc32/v1.32/bin/bin/../../lib/gcc/pic32mx/4.5.2/../../../../pic32mx/lib/size/libmchp_peripheral_32MX150F128B.a(nvm_operation_lib.o)
 .mdebug.abi32  0xa0001920        0x0 /opt/microchip/xc32/v1.32/bin/bin/../../lib/gcc/pic32mx/4.5.2/../../../../pic32mx/lib/size/libm.a(w_acosf.o)
 .mdebug.abi32  0xa0001920        0x0 /opt/microchip/xc32/v1.32/bin/bin/../../lib/gcc/pic32mx/4.5.2/../../../../pic32mx/lib/size/libm.a(w_asinf.o)
 .mdebug.abi32  0xa0001920        0x0 /opt/microchip/xc32/v1.32/bin/bin/../../lib/gcc/pic32mx/4.5.2/../../../../pic32mx/lib/size/libm.a(w_atan2f.o)
 .mdebug.abi32  0xa0001920        0x0 /opt/microchip/xc32/v1.32/bin/bin/../../lib/gcc/pic32mx/4.5.2/../../../../pic32mx/lib/size/libm.a(w_coshf.o)
 .mdebug.abi32  0xa0001920        0x0 /opt/microchip/xc32/v1.32/bin/bin/../../lib/gcc/pic32mx/4.5.2/../../../../pic32mx/lib/size/libm.a(w_expf.o)
 .mdebug.abi32  0xa0001920        0x0 /opt/microchip/xc32/v1.32/bin/bin/../../lib/gcc/pic32mx/4.5.2/../../../../pic32mx/lib/size/libm.a(w_log10f.o)
 .mdebug.abi32  0xa0001920        0x0 /opt/microchip/xc32/v1.32/bin/bin/../../lib/gcc/pic32mx/4.5.2/../../../../pic32mx/lib/size/libm.a(w_logf.o)
 .mdebug.abi32  0xa0001920        0x0 /opt/microchip/xc32/v1.32/bin/bin/../../lib/gcc/pic32mx/4.5.2/../../../../pic32mx/lib/size/libm.a(w_powf.o)
 .mdebug.abi32  0xa0001920        0x0 /opt/microchip/xc32/v1.32/bin/bin/../../lib/gcc/pic32mx/4.5.2/../../../../pic32mx/lib/size/libm.a(w_sinhf.o)
 .mdebug.abi32  0xa0001920        0x0 /opt/microchip/xc32/v1.32/bin/bin/../../lib/gcc/pic32mx/4.5.2/../../../../pic32mx/lib/size/libm.a(w_sqrtf.o)
 .mdebug.abi32  0xa0001920        0x0 /opt/microchip/xc32/v1.32/bin/bin/../../lib/gcc/pic32mx/4.5.2/../../../../pic32mx/lib/size/libm.a(support.o)
 .mdebug.abi32  0xa0001920        0x0 /opt/microchip/xc32/v1.32/bin/bin/../../lib/gcc/pic32mx/4.5.2/../../../../pic32mx/lib/size/libm.a(s_lib_ver.o)
 .mdebug.abi32  0xa0001920        0x0 /opt/microchip/xc32/v1.32/bin/bin/../../lib/gcc/pic32mx/4.5.2/../../../../pic32mx/lib/size/libpic32.a(default-bootstrap-exception-handler.o)
 .mdebug.abi32  0xa0001920        0x0 /opt/microchip/xc32/v1.32/bin/bin/../../lib/gcc/pic32mx/4.5.2/../../../../pic32mx/lib/size/libpic32.a(default-on-reset.o)
 .mdebug.abi32  0xa0001920        0x0 /opt/microchip/xc32/v1.32/bin/bin/../../lib/gcc/pic32mx/4.5.2/../../../../pic32mx/lib/size/libpic32.a(default-on-bootstrap.o)
 .mdebug.abi32  0xa0001920        0x0 /opt/microchip/xc32/v1.32/bin/bin/../../lib/gcc/pic32mx/4.5.2/../../../../pic32mx/lib/size/libpic32.a(errno.o)
 .mdebug.abi32  0xa0001920        0x0 /opt/microchip/xc32/v1.32/bin/bin/../../lib/gcc/pic32mx/4.5.2/../../../../pic32mx/lib/size/libpic32.a(isinf.o)
 .mdebug.abi32  0xa0001920        0x0 /opt/microchip/xc32/v1.32/bin/bin/../../lib/gcc/pic32mx/4.5.2/../../../../pic32mx/lib/size/libe.a(_unorddf2.o)
 .mdebug.abi32  0xa0001920        0x0 /opt/microchip/xc32/v1.32/bin/bin/../../lib/gcc/pic32mx/4.5.2/../../../../pic32mx/lib/size/libc.a(ctypef.o)
 .mdebug.abi32  0xa0001920        0x0 /opt/microchip/xc32/v1.32/bin/bin/../../lib/gcc/pic32mx/4.5.2/../../../../pic32mx/lib/size/libc.a(strncpy.o)
 .mdebug.abi32  0xa0001920        0x0 /opt/microchip/xc32/v1.32/bin/bin/../../lib/gcc/pic32mx/4.5.2/../../../../pic32mx/lib/size/libc.a(strtof.o)
 .mdebug.abi32  0xa0001920        0x0 /opt/microchip/xc32/v1.32/bin/bin/../../lib/gcc/pic32mx/4.5.2/../../../../pic32mx/lib/size/libc.a(snprintf.o)
 .mdebug.abi32  0xa0001920        0x0 /opt/microchip/xc32/v1.32/bin/bin/../../lib/gcc/pic32mx/4.5.2/../../../../pic32mx/lib/size/libc.a(vsnprintf.o)
 .mdebug.abi32  0xa0001920        0x0 /opt/microchip/xc32/v1.32/bin/bin/../../lib/gcc/pic32mx/4.5.2/../../../../pic32mx/lib/size/libc.a(ctype.o)
 .mdebug.abi32  0xa0001920        0x0 /opt/microchip/xc32/v1.32/bin/bin/../../lib/gcc/pic32mx/4.5.2/../../../../pic32mx/lib/size/libc.a(doprnt.o)
 .mdebug.abi32  0xa0001920        0x0 /opt/microchip/xc32/v1.32/bin/bin/../../lib/gcc/pic32mx/4.5.2/../../../../pic32mx/lib/size/libc.a(_fputc_simple.o)
 .mdebug.abi32  0xa0001920        0x0 /opt/microchip/xc32/v1.32/bin/bin/../../lib/gcc/pic32mx/4.5.2/../../../../pic32mx/lib/size/libc.a(powersf.o)
 .mdebug.abi32  0xa0001920        0x0 /opt/microchip/xc32/v1.32/bin/bin/../../lib/gcc/pic32mx/4.5.2/../../../../pic32mx/lib/size/libc.a(_iob.o)
 .mdebug.abi32  0xa0001920        0x0 /opt/microchip/xc32/v1.32/bin/bin/../../lib/gcc/pic32mx/4.5.2/../../../../pic32mx/lib/size/libc.a(_flsbuf_simple.o)
 .mdebug.abi32  0xa0001920        0x0 /opt/microchip/xc32/v1.32/bin/bin/../../lib/gcc/pic32mx/4.5.2/../../../../pic32mx/lib/size/libpic32.a(write.o)
 .mdebug.abi32  0xa0001920        0x0 /opt/microchip/xc32/v1.32/bin/bin/../../lib/gcc/pic32mx/4.5.2/../../../../pic32mx/lib/size/libpic32.a(_mon_putc.o)
 .mdebug.abi32  0xa0001920        0x0 /opt/microchip/xc32/v1.32/bin/bin/../../lib/gcc/pic32mx/4.5.2/../../../../pic32mx/lib/size/libpic32.a(xc32_uart.o)
 .mdebug.abi32  0xa0001920        0x0 /opt/microchip/xc32/v1.32/bin/bin/../../lib/gcc/pic32mx/4.5.2/../../../../pic32mx/lib/size/libm.a(__strtof.o)
 .mdebug.abi32  0xa0001920        0x0 /opt/microchip/xc32/v1.32/bin/bin/../../lib/gcc/pic32mx/4.5.2/../../../../pic32mx/lib/size/libe.a(_floatdisf.o)
 .mdebug.abi32  0xa0001920        0x0 /opt/microchip/xc32/v1.32/bin/bin/../../lib/gcc/pic32mx/4.5.2/../../../../pic32mx/lib/size/libe.a(_ldexpf.o)
 .mdebug.abi32  0xa0001920        0x0 /opt/microchip/xc32/v1.32/bin/bin/../../lib/gcc/pic32mx/4.5.2/size/libgcc.a(_lshrdi3.o)
 .mdebug.abi32  0xa0001920        0x0 /opt/microchip/xc32/v1.32/bin/bin/../../lib/gcc/pic32mx/4.5.2/size/libgcc.a(_floatundisf.o)
 .mdebug.abi32  0xa0001920        0x0 /opt/microchip/xc32/v1.32/bin/bin/../../lib/gcc/pic32mx/4.5.2/size/libgcc.a(_udivdi3.o)
 .mdebug.abi32  0xa0001920        0x0 /opt/microchip/xc32/v1.32/bin/bin/../../lib/gcc/pic32mx/4.5.2/size/libgcc.a(_umoddi3.o)
 .mdebug.abi32  0xa0001920        0x0 /opt/microchip/xc32/v1.32/bin/bin/../../lib/gcc/pic32mx/4.5.2/size/libgcc.a(floatunsisf.o)

.mdebug.abiN32
 *(.mdebug.abiN32)

.mdebug.abi64
 *(.mdebug.abi64)

.mdebug.abiO64
 *(.mdebug.abiO64)

.mdebug.eabi32
 *(.mdebug.eabi32)

.mdebug.eabi64
 *(.mdebug.eabi64)

.gcc_compiled_long32
 *(.gcc_compiled_long32)

.gcc_compiled_long64
 *(.gcc_compiled_long64)

.stab
 *(.stab)

.stabstr
 *(.stabstr)

.stab.excl
 *(.stab.excl)

.stab.exclstr
 *(.stab.exclstr)

.stab.index
 *(.stab.index)

.stab.indexstr
 *(.stab.indexstr)

.comment        0x00000000      0x313
 *(.comment)
 .comment       0x00000000       0x3b build/pickit3/production/_ext/1248472724/compiler.o
                                 0x3c (size before relaxing)
 .comment       0x00000000       0x3c build/pickit3/production/_ext/1248472724/debug.o
 .comment       0x00000000       0x3c build/pickit3/production/_ext/1248472724/document.o
 .comment       0x00000000       0x3c build/pickit3/production/_ext/1248472724/editor.o
 .comment       0x00000000       0x3c build/pickit3/production/_ext/1248472724/error.o
 .comment       0x00000000       0x3c build/pickit3/production/_ext/1248472724/exception.o
 .comment       0x00000000       0x3c build/pickit3/production/_ext/1248472724/file.o
 .comment       0x00000000       0x3c build/pickit3/production/_ext/1248472724/float.o
 .comment       0x00000000       0x3c build/pickit3/production/_ext/1248472724/function.o
 .comment       0x00000000       0x3c build/pickit3/production/_ext/1248472724/globalvars.o
 .comment       0x00000000       0x3c build/pickit3/production/_ext/1248472724/keyinput.o
 .comment       0x00000000       0x3c build/pickit3/production/_ext/1248472724/library.o
 .comment       0x00000000       0x3c build/pickit3/production/_ext/1248472724/linker.o
 .comment       0x00000000       0x3c build/pickit3/production/_ext/1248472724/main.o
 .comment       0x00000000       0x3c build/pickit3/production/_ext/1248472724/memory.o
 .comment       0x00000000       0x3c build/pickit3/production/_ext/1248472724/music.o
 .comment       0x00000000       0x3c build/pickit3/production/_ext/1248472724/operator.o
 .comment       0x00000000       0x3c build/pickit3/production/_ext/1248472724/run.o
 .comment       0x00000000       0x3c build/pickit3/production/_ext/1248472724/statement.o
 .comment       0x00000000       0x3c build/pickit3/production/_ext/1248472724/string.o
 .comment       0x00000000       0x3c build/pickit3/production/_ext/1248472724/value.o
 .comment       0x00000000       0x3c build/pickit3/production/_ext/618058229/fontx2.o
 .comment       0x0000003b       0x3c source/lib_videoout_machikania.X.a(videoout.o)
                                 0x3d (size before relaxing)
 .comment       0x00000000       0x3d source/lib_videoout_machikania.X.a(textvideolib.o)
 .comment       0x00000000       0x3d source/lib_videoout_machikania.X.a(graphvideolib.o)
 .comment       0x00000000       0x3d source/ps2keyboard.X.a(ps2keyboard.o)
 .comment       0x00000000       0x3d source/libsdfsio.a(FSIO.o)
 .comment       0x00000000       0x3d source/libsdfsio.a(SD-SPI.o)
 .comment       0x00000077       0x3c /opt/microchip/xc32/v1.32/bin/bin/../../lib/gcc/pic32mx/4.5.2/../../../../pic32mx/lib/size/libmchp_peripheral_32MX150F128B.a(soft_reset_lib.o)
                                 0x3d (size before relaxing)
 .comment       0x00000000       0x3d /opt/microchip/xc32/v1.32/bin/bin/../../lib/gcc/pic32mx/4.5.2/../../../../pic32mx/lib/size/libmchp_peripheral_32MX150F128B.a(osc_config_lib.o)
 .comment       0x00000000       0x3d /opt/microchip/xc32/v1.32/bin/bin/../../lib/gcc/pic32mx/4.5.2/../../../../pic32mx/lib/size/libmchp_peripheral_32MX150F128B.a(int_disable_interrupts_lib.o)
 .comment       0x00000000       0x3d /opt/microchip/xc32/v1.32/bin/bin/../../lib/gcc/pic32mx/4.5.2/../../../../pic32mx/lib/size/libmchp_peripheral_32MX150F128B.a(int_restore_interrupts_lib.o)
 .comment       0x00000000       0x3d /opt/microchip/xc32/v1.32/bin/bin/../../lib/gcc/pic32mx/4.5.2/../../../../pic32mx/lib/size/libmchp_peripheral_32MX150F128B.a(int_enable_mv_int_lib.o)
 .comment       0x00000000       0x3d /opt/microchip/xc32/v1.32/bin/bin/../../lib/gcc/pic32mx/4.5.2/../../../../pic32mx/lib/size/libmchp_peripheral_32MX150F128B.a(spi_getc_spi2_lib_legacy.o)
 .comment       0x00000000       0x3d /opt/microchip/xc32/v1.32/bin/bin/../../lib/gcc/pic32mx/4.5.2/../../../../pic32mx/lib/size/libmchp_peripheral_32MX150F128B.a(spi_open_spi2_lib_legacy.o)
 .comment       0x00000000       0x3d /opt/microchip/xc32/v1.32/bin/bin/../../lib/gcc/pic32mx/4.5.2/../../../../pic32mx/lib/size/libmchp_peripheral_32MX150F128B.a(spi_brg_tbl_lib_legacy.o)
 .comment       0x00000000       0x3d /opt/microchip/xc32/v1.32/bin/bin/../../lib/gcc/pic32mx/4.5.2/../../../../pic32mx/lib/size/libmchp_peripheral_32MX150F128B.a(nvm_write_word_lib.o)
 .comment       0x00000000       0x3d /opt/microchip/xc32/v1.32/bin/bin/../../lib/gcc/pic32mx/4.5.2/../../../../pic32mx/lib/size/libmchp_peripheral_32MX150F128B.a(int_enable_interrupts_lib.o)
 .comment       0x00000000       0x3d /opt/microchip/xc32/v1.32/bin/bin/../../lib/gcc/pic32mx/4.5.2/../../../../pic32mx/lib/size/libmchp_peripheral_32MX150F128B.a(nvm_operation_lib.o)
 .comment       0x000000b3       0x3c /opt/microchip/xc32/v1.32/bin/bin/../../lib/gcc/pic32mx/4.5.2/../../../../pic32mx/lib/size/libm.a(w_acosf.o)
                                 0x3d (size before relaxing)
 .comment       0x00000000       0x3d /opt/microchip/xc32/v1.32/bin/bin/../../lib/gcc/pic32mx/4.5.2/../../../../pic32mx/lib/size/libm.a(w_asinf.o)
 .comment       0x00000000       0x3d /opt/microchip/xc32/v1.32/bin/bin/../../lib/gcc/pic32mx/4.5.2/../../../../pic32mx/lib/size/libm.a(w_atan2f.o)
 .comment       0x00000000       0x3d /opt/microchip/xc32/v1.32/bin/bin/../../lib/gcc/pic32mx/4.5.2/../../../../pic32mx/lib/size/libm.a(w_coshf.o)
 .comment       0x00000000       0x3d /opt/microchip/xc32/v1.32/bin/bin/../../lib/gcc/pic32mx/4.5.2/../../../../pic32mx/lib/size/libm.a(w_expf.o)
 .comment       0x00000000       0x3d /opt/microchip/xc32/v1.32/bin/bin/../../lib/gcc/pic32mx/4.5.2/../../../../pic32mx/lib/size/libm.a(w_log10f.o)
 .comment       0x00000000       0x3d /opt/microchip/xc32/v1.32/bin/bin/../../lib/gcc/pic32mx/4.5.2/../../../../pic32mx/lib/size/libm.a(w_logf.o)
 .comment       0x00000000       0x3d /opt/microchip/xc32/v1.32/bin/bin/../../lib/gcc/pic32mx/4.5.2/../../../../pic32mx/lib/size/libm.a(w_powf.o)
 .comment       0x00000000       0x3d /opt/microchip/xc32/v1.32/bin/bin/../../lib/gcc/pic32mx/4.5.2/../../../../pic32mx/lib/size/libm.a(w_sinhf.o)
 .comment       0x00000000       0x3d /opt/microchip/xc32/v1.32/bin/bin/../../lib/gcc/pic32mx/4.5.2/../../../../pic32mx/lib/size/libm.a(w_sqrtf.o)
 .comment       0x00000000       0x3d /opt/microchip/xc32/v1.32/bin/bin/../../lib/gcc/pic32mx/4.5.2/../../../../pic32mx/lib/size/libm.a(support.o)
 .comment       0x00000000       0x3d /opt/microchip/xc32/v1.32/bin/bin/../../lib/gcc/pic32mx/4.5.2/../../../../pic32mx/lib/size/libm.a(s_lib_ver.o)
 .comment       0x000000ef       0x18 /opt/microchip/xc32/v1.32/bin/bin/../../lib/gcc/pic32mx/4.5.2/../../../../pic32mx/lib/size/libpic32.a(memset.o)
                                 0x19 (size before relaxing)
 .comment       0x00000107       0x19 /opt/microchip/xc32/v1.32/bin/bin/../../lib/gcc/pic32mx/4.5.2/../../../../pic32mx/lib/size/libpic32.a(strcpy.o)
                                 0x1a (size before relaxing)
 .comment       0x00000120       0x19 /opt/microchip/xc32/v1.32/bin/bin/../../lib/gcc/pic32mx/4.5.2/../../../../pic32mx/lib/size/libpic32.a(strlen.o)
                                 0x1a (size before relaxing)
 .comment       0x00000000       0x3d /opt/microchip/xc32/v1.32/bin/bin/../../lib/gcc/pic32mx/4.5.2/../../../../pic32mx/lib/size/libpic32.a(default-bootstrap-exception-handler.o)
 .comment       0x00000000       0x3d /opt/microchip/xc32/v1.32/bin/bin/../../lib/gcc/pic32mx/4.5.2/../../../../pic32mx/lib/size/libpic32.a(default-on-reset.o)
 .comment       0x00000000       0x3d /opt/microchip/xc32/v1.32/bin/bin/../../lib/gcc/pic32mx/4.5.2/../../../../pic32mx/lib/size/libpic32.a(default-on-bootstrap.o)
 .comment       0x00000000       0x3d /opt/microchip/xc32/v1.32/bin/bin/../../lib/gcc/pic32mx/4.5.2/../../../../pic32mx/lib/size/libpic32.a(errno.o)
 .comment       0x00000000       0x3d /opt/microchip/xc32/v1.32/bin/bin/../../lib/gcc/pic32mx/4.5.2/../../../../pic32mx/lib/size/libpic32.a(isinf.o)
 .comment       0x00000139       0x4e /opt/microchip/xc32/v1.32/bin/bin/../../lib/gcc/pic32mx/4.5.2/../../../../pic32mx/lib/size/libe.a(_unorddf2.o)
                                 0x8b (size before relaxing)
 .comment       0x00000187       0x4f /opt/microchip/xc32/v1.32/bin/bin/../../lib/gcc/pic32mx/4.5.2/../../../../pic32mx/lib/size/libc.a(ctypef.o)
                                 0x8c (size before relaxing)
 .comment       0x00000000       0x3d /opt/microchip/xc32/v1.32/bin/bin/../../lib/gcc/pic32mx/4.5.2/../../../../pic32mx/lib/size/libc.a(strncpy.o)
 .comment       0x00000000       0x3d /opt/microchip/xc32/v1.32/bin/bin/../../lib/gcc/pic32mx/4.5.2/../../../../pic32mx/lib/size/libc.a(strtof.o)
 .comment       0x00000000       0x3d /opt/microchip/xc32/v1.32/bin/bin/../../lib/gcc/pic32mx/4.5.2/../../../../pic32mx/lib/size/libc.a(snprintf.o)
 .comment       0x00000000       0x3d /opt/microchip/xc32/v1.32/bin/bin/../../lib/gcc/pic32mx/4.5.2/../../../../pic32mx/lib/size/libc.a(vsnprintf.o)
 .comment       0x000001d6       0x4e /opt/microchip/xc32/v1.32/bin/bin/../../lib/gcc/pic32mx/4.5.2/../../../../pic32mx/lib/size/libc.a(ctype.o)
                                 0x8b (size before relaxing)
 .comment       0x00000000       0x3d /opt/microchip/xc32/v1.32/bin/bin/../../lib/gcc/pic32mx/4.5.2/../../../../pic32mx/lib/size/libc.a(doprnt.o)
 .comment       0x00000000       0x3d /opt/microchip/xc32/v1.32/bin/bin/../../lib/gcc/pic32mx/4.5.2/../../../../pic32mx/lib/size/libc.a(_fputc_simple.o)
 .comment       0x00000000       0x3d /opt/microchip/xc32/v1.32/bin/bin/../../lib/gcc/pic32mx/4.5.2/../../../../pic32mx/lib/size/libc.a(powersf.o)
 .comment       0x00000000       0x3d /opt/microchip/xc32/v1.32/bin/bin/../../lib/gcc/pic32mx/4.5.2/../../../../pic32mx/lib/size/libc.a(_iob.o)
 .comment       0x00000000       0x3d /opt/microchip/xc32/v1.32/bin/bin/../../lib/gcc/pic32mx/4.5.2/../../../../pic32mx/lib/size/libc.a(_flsbuf_simple.o)
 .comment       0x00000000       0x3d /opt/microchip/xc32/v1.32/bin/bin/../../lib/gcc/pic32mx/4.5.2/../../../../pic32mx/lib/size/libpic32.a(write.o)
 .comment       0x00000000       0x3d /opt/microchip/xc32/v1.32/bin/bin/../../lib/gcc/pic32mx/4.5.2/../../../../pic32mx/lib/size/libpic32.a(_mon_putc.o)
 .comment       0x00000000       0x3d /opt/microchip/xc32/v1.32/bin/bin/../../lib/gcc/pic32mx/4.5.2/../../../../pic32mx/lib/size/libpic32.a(xc32_uart.o)
 .comment       0x00000224       0x4f /opt/microchip/xc32/v1.32/bin/bin/../../lib/gcc/pic32mx/4.5.2/../../../../pic32mx/lib/size/libm.a(__strtof.o)
                                 0xda (size before relaxing)
 .comment       0x00000273       0x50 /opt/microchip/xc32/v1.32/bin/bin/../../lib/gcc/pic32mx/4.5.2/../../../../pic32mx/lib/size/libe.a(_floatdisf.o)
                                 0xdb (size before relaxing)
 .comment       0x000002c3       0x50 /opt/microchip/xc32/v1.32/bin/bin/../../lib/gcc/pic32mx/4.5.2/../../../../pic32mx/lib/size/libe.a(_ldexpf.o)
                                 0xdb (size before relaxing)
 .comment       0x00000000       0x3d /opt/microchip/xc32/v1.32/bin/bin/../../lib/gcc/pic32mx/4.5.2/size/libgcc.a(_lshrdi3.o)
 .comment       0x00000000       0x3d /opt/microchip/xc32/v1.32/bin/bin/../../lib/gcc/pic32mx/4.5.2/size/libgcc.a(_floatundisf.o)
 .comment       0x00000000       0x3d /opt/microchip/xc32/v1.32/bin/bin/../../lib/gcc/pic32mx/4.5.2/size/libgcc.a(_udivdi3.o)
 .comment       0x00000000       0x3d /opt/microchip/xc32/v1.32/bin/bin/../../lib/gcc/pic32mx/4.5.2/size/libgcc.a(_umoddi3.o)
 .comment       0x00000000       0x3d /opt/microchip/xc32/v1.32/bin/bin/../../lib/gcc/pic32mx/4.5.2/size/libgcc.a(floatunsisf.o)

.debug
 *(.debug)

.line
 *(.line)

.debug_srcinfo
 *(.debug_srcinfo)

.debug_sfnames
 *(.debug_sfnames)

.debug_aranges  0x00000000      0xa10
 *(.debug_aranges)
 .debug_aranges
                0x00000000       0x20 build/pickit3/production/_ext/1248472724/compiler.o
 .debug_aranges
                0x00000020       0x20 build/pickit3/production/_ext/1248472724/document.o
 .debug_aranges
                0x00000040       0x20 build/pickit3/production/_ext/1248472724/editor.o
 .debug_aranges
                0x00000060       0x20 build/pickit3/production/_ext/1248472724/error.o
 .debug_aranges
                0x00000080       0x20 build/pickit3/production/_ext/1248472724/exception.o
 .debug_aranges
                0x000000a0       0x20 build/pickit3/production/_ext/1248472724/file.o
 .debug_aranges
                0x000000c0       0x20 build/pickit3/production/_ext/1248472724/float.o
 .debug_aranges
                0x000000e0       0x20 build/pickit3/production/_ext/1248472724/function.o
 .debug_aranges
                0x00000100       0x20 build/pickit3/production/_ext/1248472724/keyinput.o
 .debug_aranges
                0x00000120       0x20 build/pickit3/production/_ext/1248472724/library.o
 .debug_aranges
                0x00000140       0x20 build/pickit3/production/_ext/1248472724/linker.o
 .debug_aranges
                0x00000160       0x20 build/pickit3/production/_ext/1248472724/main.o
 .debug_aranges
                0x00000180       0x20 build/pickit3/production/_ext/1248472724/memory.o
 .debug_aranges
                0x000001a0       0x20 build/pickit3/production/_ext/1248472724/music.o
 .debug_aranges
                0x000001c0       0x20 build/pickit3/production/_ext/1248472724/operator.o
 .debug_aranges
                0x000001e0       0x20 build/pickit3/production/_ext/1248472724/run.o
 .debug_aranges
                0x00000200       0x20 build/pickit3/production/_ext/1248472724/statement.o
 .debug_aranges
                0x00000220       0x20 build/pickit3/production/_ext/1248472724/string.o
 .debug_aranges
                0x00000240       0x20 build/pickit3/production/_ext/1248472724/value.o
 .debug_aranges
                0x00000260       0x38 build/pickit3/production/_ext/618058229/crt0.o
 .debug_aranges
                0x00000298       0x20 build/pickit3/production/_ext/618058229/fontx2.o
 .debug_aranges
                0x000002b8       0x20 source/lib_videoout_machikania.X.a(videoout.o)
 .debug_aranges
                0x000002d8       0x20 source/lib_videoout_machikania.X.a(textvideolib.o)
 .debug_aranges
                0x000002f8       0x20 source/lib_videoout_machikania.X.a(graphvideolib.o)
 .debug_aranges
                0x00000318       0x20 source/ps2keyboard.X.a(ps2keyboard.o)
 .debug_aranges
                0x00000338       0x20 source/libsdfsio.a(FSIO.o)
 .debug_aranges
                0x00000358       0x20 source/libsdfsio.a(SD-SPI.o)
 .debug_aranges
                0x00000378       0x20 /opt/microchip/xc32/v1.32/bin/bin/../../lib/gcc/pic32mx/4.5.2/../../../../pic32mx/lib/size/libmchp_peripheral_32MX150F128B.a(soft_reset_lib.o)
 .debug_aranges
                0x00000398       0x20 /opt/microchip/xc32/v1.32/bin/bin/../../lib/gcc/pic32mx/4.5.2/../../../../pic32mx/lib/size/libmchp_peripheral_32MX150F128B.a(osc_config_lib.o)
 .debug_aranges
                0x000003b8       0x20 /opt/microchip/xc32/v1.32/bin/bin/../../lib/gcc/pic32mx/4.5.2/../../../../pic32mx/lib/size/libmchp_peripheral_32MX150F128B.a(int_disable_interrupts_lib.o)
 .debug_aranges
                0x000003d8       0x20 /opt/microchip/xc32/v1.32/bin/bin/../../lib/gcc/pic32mx/4.5.2/../../../../pic32mx/lib/size/libmchp_peripheral_32MX150F128B.a(int_restore_interrupts_lib.o)
 .debug_aranges
                0x000003f8       0x20 /opt/microchip/xc32/v1.32/bin/bin/../../lib/gcc/pic32mx/4.5.2/../../../../pic32mx/lib/size/libmchp_peripheral_32MX150F128B.a(int_enable_mv_int_lib.o)
 .debug_aranges
                0x00000418       0x20 /opt/microchip/xc32/v1.32/bin/bin/../../lib/gcc/pic32mx/4.5.2/../../../../pic32mx/lib/size/libmchp_peripheral_32MX150F128B.a(spi_getc_spi2_lib_legacy.o)
 .debug_aranges
                0x00000438       0x20 /opt/microchip/xc32/v1.32/bin/bin/../../lib/gcc/pic32mx/4.5.2/../../../../pic32mx/lib/size/libmchp_peripheral_32MX150F128B.a(spi_open_spi2_lib_legacy.o)
 .debug_aranges
                0x00000458       0x20 /opt/microchip/xc32/v1.32/bin/bin/../../lib/gcc/pic32mx/4.5.2/../../../../pic32mx/lib/size/libmchp_peripheral_32MX150F128B.a(nvm_write_word_lib.o)
 .debug_aranges
                0x00000478       0x20 /opt/microchip/xc32/v1.32/bin/bin/../../lib/gcc/pic32mx/4.5.2/../../../../pic32mx/lib/size/libmchp_peripheral_32MX150F128B.a(int_enable_interrupts_lib.o)
 .debug_aranges
                0x00000498       0x20 /opt/microchip/xc32/v1.32/bin/bin/../../lib/gcc/pic32mx/4.5.2/../../../../pic32mx/lib/size/libmchp_peripheral_32MX150F128B.a(nvm_operation_lib.o)
 .debug_aranges
                0x000004b8       0x20 /opt/microchip/xc32/v1.32/bin/bin/../../lib/gcc/pic32mx/4.5.2/../../../../pic32mx/lib/size/libm.a(w_acosf.o)
 .debug_aranges
                0x000004d8       0x20 /opt/microchip/xc32/v1.32/bin/bin/../../lib/gcc/pic32mx/4.5.2/../../../../pic32mx/lib/size/libm.a(w_asinf.o)
 .debug_aranges
                0x000004f8       0x20 /opt/microchip/xc32/v1.32/bin/bin/../../lib/gcc/pic32mx/4.5.2/../../../../pic32mx/lib/size/libm.a(w_atan2f.o)
 .debug_aranges
                0x00000518       0x20 /opt/microchip/xc32/v1.32/bin/bin/../../lib/gcc/pic32mx/4.5.2/../../../../pic32mx/lib/size/libm.a(w_coshf.o)
 .debug_aranges
                0x00000538       0x20 /opt/microchip/xc32/v1.32/bin/bin/../../lib/gcc/pic32mx/4.5.2/../../../../pic32mx/lib/size/libm.a(w_expf.o)
 .debug_aranges
                0x00000558       0x20 /opt/microchip/xc32/v1.32/bin/bin/../../lib/gcc/pic32mx/4.5.2/../../../../pic32mx/lib/size/libm.a(w_log10f.o)
 .debug_aranges
                0x00000578       0x20 /opt/microchip/xc32/v1.32/bin/bin/../../lib/gcc/pic32mx/4.5.2/../../../../pic32mx/lib/size/libm.a(w_logf.o)
 .debug_aranges
                0x00000598       0x20 /opt/microchip/xc32/v1.32/bin/bin/../../lib/gcc/pic32mx/4.5.2/../../../../pic32mx/lib/size/libm.a(w_powf.o)
 .debug_aranges
                0x000005b8       0x20 /opt/microchip/xc32/v1.32/bin/bin/../../lib/gcc/pic32mx/4.5.2/../../../../pic32mx/lib/size/libm.a(w_sinhf.o)
 .debug_aranges
                0x000005d8       0x20 /opt/microchip/xc32/v1.32/bin/bin/../../lib/gcc/pic32mx/4.5.2/../../../../pic32mx/lib/size/libm.a(w_sqrtf.o)
 .debug_aranges
                0x000005f8       0x78 /opt/microchip/xc32/v1.32/bin/bin/../../lib/gcc/pic32mx/4.5.2/../../../../pic32mx/lib/size/libm.a(support.o)
 .debug_aranges
                0x00000670       0x20 /opt/microchip/xc32/v1.32/bin/bin/../../lib/gcc/pic32mx/4.5.2/../../../../pic32mx/lib/size/libpic32.a(default-bootstrap-exception-handler.o)
 .debug_aranges
                0x00000690       0x20 /opt/microchip/xc32/v1.32/bin/bin/../../lib/gcc/pic32mx/4.5.2/../../../../pic32mx/lib/size/libpic32.a(default-on-reset.o)
 .debug_aranges
                0x000006b0       0x20 /opt/microchip/xc32/v1.32/bin/bin/../../lib/gcc/pic32mx/4.5.2/../../../../pic32mx/lib/size/libpic32.a(default-on-bootstrap.o)
 .debug_aranges
                0x000006d0       0x48 /opt/microchip/xc32/v1.32/bin/bin/../../lib/gcc/pic32mx/4.5.2/../../../../pic32mx/lib/size/libpic32.a(isinf.o)
 .debug_aranges
                0x00000718       0x20 /opt/microchip/xc32/v1.32/bin/bin/../../lib/gcc/pic32mx/4.5.2/../../../../pic32mx/lib/size/libe.a(_unorddf2.o)
 .debug_aranges
                0x00000738       0xa0 /opt/microchip/xc32/v1.32/bin/bin/../../lib/gcc/pic32mx/4.5.2/../../../../pic32mx/lib/size/libc.a(ctypef.o)
 .debug_aranges
                0x000007d8       0x20 /opt/microchip/xc32/v1.32/bin/bin/../../lib/gcc/pic32mx/4.5.2/../../../../pic32mx/lib/size/libc.a(strncpy.o)
 .debug_aranges
                0x000007f8       0x28 /opt/microchip/xc32/v1.32/bin/bin/../../lib/gcc/pic32mx/4.5.2/../../../../pic32mx/lib/size/libc.a(strtof.o)
 .debug_aranges
                0x00000820       0x20 /opt/microchip/xc32/v1.32/bin/bin/../../lib/gcc/pic32mx/4.5.2/../../../../pic32mx/lib/size/libc.a(snprintf.o)
 .debug_aranges
                0x00000840       0x20 /opt/microchip/xc32/v1.32/bin/bin/../../lib/gcc/pic32mx/4.5.2/../../../../pic32mx/lib/size/libc.a(vsnprintf.o)
 .debug_aranges
                0x00000860       0x30 /opt/microchip/xc32/v1.32/bin/bin/../../lib/gcc/pic32mx/4.5.2/../../../../pic32mx/lib/size/libc.a(doprnt.o)
 .debug_aranges
                0x00000890       0x20 /opt/microchip/xc32/v1.32/bin/bin/../../lib/gcc/pic32mx/4.5.2/../../../../pic32mx/lib/size/libc.a(_fputc_simple.o)
 .debug_aranges
                0x000008b0       0x20 /opt/microchip/xc32/v1.32/bin/bin/../../lib/gcc/pic32mx/4.5.2/../../../../pic32mx/lib/size/libc.a(_flsbuf_simple.o)
 .debug_aranges
                0x000008d0       0x20 /opt/microchip/xc32/v1.32/bin/bin/../../lib/gcc/pic32mx/4.5.2/../../../../pic32mx/lib/size/libpic32.a(write.o)
 .debug_aranges
                0x000008f0       0x20 /opt/microchip/xc32/v1.32/bin/bin/../../lib/gcc/pic32mx/4.5.2/../../../../pic32mx/lib/size/libpic32.a(_mon_putc.o)
 .debug_aranges
                0x00000910       0x20 /opt/microchip/xc32/v1.32/bin/bin/../../lib/gcc/pic32mx/4.5.2/../../../../pic32mx/lib/size/libm.a(__strtof.o)
 .debug_aranges
                0x00000930       0x20 /opt/microchip/xc32/v1.32/bin/bin/../../lib/gcc/pic32mx/4.5.2/../../../../pic32mx/lib/size/libe.a(_floatdisf.o)
 .debug_aranges
                0x00000950       0x20 /opt/microchip/xc32/v1.32/bin/bin/../../lib/gcc/pic32mx/4.5.2/../../../../pic32mx/lib/size/libe.a(_ldexpf.o)
 .debug_aranges
                0x00000970       0x20 /opt/microchip/xc32/v1.32/bin/bin/../../lib/gcc/pic32mx/4.5.2/size/libgcc.a(_lshrdi3.o)
 .debug_aranges
                0x00000990       0x20 /opt/microchip/xc32/v1.32/bin/bin/../../lib/gcc/pic32mx/4.5.2/size/libgcc.a(_floatundisf.o)
 .debug_aranges
                0x000009b0       0x20 /opt/microchip/xc32/v1.32/bin/bin/../../lib/gcc/pic32mx/4.5.2/size/libgcc.a(_udivdi3.o)
 .debug_aranges
                0x000009d0       0x20 /opt/microchip/xc32/v1.32/bin/bin/../../lib/gcc/pic32mx/4.5.2/size/libgcc.a(_umoddi3.o)
 .debug_aranges
                0x000009f0       0x20 /opt/microchip/xc32/v1.32/bin/bin/../../lib/gcc/pic32mx/4.5.2/size/libgcc.a(floatunsisf.o)

.debug_pubnames
                0x00000000     0x2d59
 *(.debug_pubnames)
 .debug_pubnames
                0x00000000       0x74 build/pickit3/production/_ext/1248472724/compiler.o
 .debug_pubnames
                0x00000074       0x2d build/pickit3/production/_ext/1248472724/document.o
 .debug_pubnames
                0x000000a1      0x580 build/pickit3/production/_ext/1248472724/editor.o
 .debug_pubnames
                0x00000621       0xf6 build/pickit3/production/_ext/1248472724/error.o
 .debug_pubnames
                0x00000717       0x50 build/pickit3/production/_ext/1248472724/exception.o
 .debug_pubnames
                0x00000767       0x4e build/pickit3/production/_ext/1248472724/file.o
 .debug_pubnames
                0x000007b5       0x47 build/pickit3/production/_ext/1248472724/float.o
 .debug_pubnames
                0x000007fc      0x298 build/pickit3/production/_ext/1248472724/function.o
 .debug_pubnames
                0x00000a94      0x1c4 build/pickit3/production/_ext/1248472724/globalvars.o
 .debug_pubnames
                0x00000c58       0xdb build/pickit3/production/_ext/1248472724/keyinput.o
 .debug_pubnames
                0x00000d33      0x20f build/pickit3/production/_ext/1248472724/library.o
 .debug_pubnames
                0x00000f42       0x6b build/pickit3/production/_ext/1248472724/linker.o
 .debug_pubnames
                0x00000fad       0x89 build/pickit3/production/_ext/1248472724/main.o
 .debug_pubnames
                0x00001036       0xa0 build/pickit3/production/_ext/1248472724/memory.o
 .debug_pubnames
                0x000010d6       0xa6 build/pickit3/production/_ext/1248472724/music.o
 .debug_pubnames
                0x0000117c       0x8a build/pickit3/production/_ext/1248472724/operator.o
 .debug_pubnames
                0x00001206       0x2c build/pickit3/production/_ext/1248472724/run.o
 .debug_pubnames
                0x00001232      0x404 build/pickit3/production/_ext/1248472724/statement.o
 .debug_pubnames
                0x00001636       0x46 build/pickit3/production/_ext/1248472724/string.o
 .debug_pubnames
                0x0000167c       0x89 build/pickit3/production/_ext/1248472724/value.o
 .debug_pubnames
                0x00001705       0xa7 build/pickit3/production/_ext/618058229/fontx2.o
 .debug_pubnames
                0x000017ac      0x19a source/lib_videoout_machikania.X.a(videoout.o)
 .debug_pubnames
                0x00001946       0xe2 source/lib_videoout_machikania.X.a(textvideolib.o)
 .debug_pubnames
                0x00001a28       0xc7 source/lib_videoout_machikania.X.a(graphvideolib.o)
 .debug_pubnames
                0x00001aef      0x36c source/ps2keyboard.X.a(ps2keyboard.o)
 .debug_pubnames
                0x00001e5b      0x5ea source/libsdfsio.a(FSIO.o)
 .debug_pubnames
                0x00002445      0x1fc source/libsdfsio.a(SD-SPI.o)
 .debug_pubnames
                0x00002641       0x20 /opt/microchip/xc32/v1.32/bin/bin/../../lib/gcc/pic32mx/4.5.2/../../../../pic32mx/lib/size/libmchp_peripheral_32MX150F128B.a(soft_reset_lib.o)
 .debug_pubnames
                0x00002661       0x20 /opt/microchip/xc32/v1.32/bin/bin/../../lib/gcc/pic32mx/4.5.2/../../../../pic32mx/lib/size/libmchp_peripheral_32MX150F128B.a(osc_config_lib.o)
 .debug_pubnames
                0x00002681       0x2b /opt/microchip/xc32/v1.32/bin/bin/../../lib/gcc/pic32mx/4.5.2/../../../../pic32mx/lib/size/libmchp_peripheral_32MX150F128B.a(int_disable_interrupts_lib.o)
 .debug_pubnames
                0x000026ac       0x2b /opt/microchip/xc32/v1.32/bin/bin/../../lib/gcc/pic32mx/4.5.2/../../../../pic32mx/lib/size/libmchp_peripheral_32MX150F128B.a(int_restore_interrupts_lib.o)
 .debug_pubnames
                0x000026d7       0x36 /opt/microchip/xc32/v1.32/bin/bin/../../lib/gcc/pic32mx/4.5.2/../../../../pic32mx/lib/size/libmchp_peripheral_32MX150F128B.a(int_enable_mv_int_lib.o)
 .debug_pubnames
                0x0000270d       0x1f /opt/microchip/xc32/v1.32/bin/bin/../../lib/gcc/pic32mx/4.5.2/../../../../pic32mx/lib/size/libmchp_peripheral_32MX150F128B.a(spi_getc_spi2_lib_legacy.o)
 .debug_pubnames
                0x0000272c       0x1f /opt/microchip/xc32/v1.32/bin/bin/../../lib/gcc/pic32mx/4.5.2/../../../../pic32mx/lib/size/libmchp_peripheral_32MX150F128B.a(spi_open_spi2_lib_legacy.o)
 .debug_pubnames
                0x0000274b       0x23 /opt/microchip/xc32/v1.32/bin/bin/../../lib/gcc/pic32mx/4.5.2/../../../../pic32mx/lib/size/libmchp_peripheral_32MX150F128B.a(nvm_write_word_lib.o)
 .debug_pubnames
                0x0000276e       0x2a /opt/microchip/xc32/v1.32/bin/bin/../../lib/gcc/pic32mx/4.5.2/../../../../pic32mx/lib/size/libmchp_peripheral_32MX150F128B.a(int_enable_interrupts_lib.o)
 .debug_pubnames
                0x00002798       0x24 /opt/microchip/xc32/v1.32/bin/bin/../../lib/gcc/pic32mx/4.5.2/../../../../pic32mx/lib/size/libmchp_peripheral_32MX150F128B.a(nvm_operation_lib.o)
 .debug_pubnames
                0x000027bc       0x1c /opt/microchip/xc32/v1.32/bin/bin/../../lib/gcc/pic32mx/4.5.2/../../../../pic32mx/lib/size/libm.a(w_acosf.o)
 .debug_pubnames
                0x000027d8       0x1c /opt/microchip/xc32/v1.32/bin/bin/../../lib/gcc/pic32mx/4.5.2/../../../../pic32mx/lib/size/libm.a(w_asinf.o)
 .debug_pubnames
                0x000027f4       0x1d /opt/microchip/xc32/v1.32/bin/bin/../../lib/gcc/pic32mx/4.5.2/../../../../pic32mx/lib/size/libm.a(w_atan2f.o)
 .debug_pubnames
                0x00002811       0x1c /opt/microchip/xc32/v1.32/bin/bin/../../lib/gcc/pic32mx/4.5.2/../../../../pic32mx/lib/size/libm.a(w_coshf.o)
 .debug_pubnames
                0x0000282d       0x1b /opt/microchip/xc32/v1.32/bin/bin/../../lib/gcc/pic32mx/4.5.2/../../../../pic32mx/lib/size/libm.a(w_expf.o)
 .debug_pubnames
                0x00002848       0x1d /opt/microchip/xc32/v1.32/bin/bin/../../lib/gcc/pic32mx/4.5.2/../../../../pic32mx/lib/size/libm.a(w_log10f.o)
 .debug_pubnames
                0x00002865       0x1b /opt/microchip/xc32/v1.32/bin/bin/../../lib/gcc/pic32mx/4.5.2/../../../../pic32mx/lib/size/libm.a(w_logf.o)
 .debug_pubnames
                0x00002880       0x1b /opt/microchip/xc32/v1.32/bin/bin/../../lib/gcc/pic32mx/4.5.2/../../../../pic32mx/lib/size/libm.a(w_powf.o)
 .debug_pubnames
                0x0000289b       0x1c /opt/microchip/xc32/v1.32/bin/bin/../../lib/gcc/pic32mx/4.5.2/../../../../pic32mx/lib/size/libm.a(w_sinhf.o)
 .debug_pubnames
                0x000028b7       0x1c /opt/microchip/xc32/v1.32/bin/bin/../../lib/gcc/pic32mx/4.5.2/../../../../pic32mx/lib/size/libm.a(w_sqrtf.o)
 .debug_pubnames
                0x000028d3       0x98 /opt/microchip/xc32/v1.32/bin/bin/../../lib/gcc/pic32mx/4.5.2/../../../../pic32mx/lib/size/libm.a(support.o)
 .debug_pubnames
                0x0000296b       0x33 /opt/microchip/xc32/v1.32/bin/bin/../../lib/gcc/pic32mx/4.5.2/../../../../pic32mx/lib/size/libpic32.a(default-bootstrap-exception-handler.o)
 .debug_pubnames
                0x0000299e       0x20 /opt/microchip/xc32/v1.32/bin/bin/../../lib/gcc/pic32mx/4.5.2/../../../../pic32mx/lib/size/libpic32.a(default-on-reset.o)
 .debug_pubnames
                0x000029be       0x24 /opt/microchip/xc32/v1.32/bin/bin/../../lib/gcc/pic32mx/4.5.2/../../../../pic32mx/lib/size/libpic32.a(default-on-bootstrap.o)
 .debug_pubnames
                0x000029e2       0x52 /opt/microchip/xc32/v1.32/bin/bin/../../lib/gcc/pic32mx/4.5.2/../../../../pic32mx/lib/size/libpic32.a(isinf.o)
 .debug_pubnames
                0x00002a34       0x21 /opt/microchip/xc32/v1.32/bin/bin/../../lib/gcc/pic32mx/4.5.2/../../../../pic32mx/lib/size/libe.a(_unorddf2.o)
 .debug_pubnames
                0x00002a55       0xe1 /opt/microchip/xc32/v1.32/bin/bin/../../lib/gcc/pic32mx/4.5.2/../../../../pic32mx/lib/size/libc.a(ctypef.o)
 .debug_pubnames
                0x00002b36       0x1e /opt/microchip/xc32/v1.32/bin/bin/../../lib/gcc/pic32mx/4.5.2/../../../../pic32mx/lib/size/libc.a(strncpy.o)
 .debug_pubnames
                0x00002b54       0x29 /opt/microchip/xc32/v1.32/bin/bin/../../lib/gcc/pic32mx/4.5.2/../../../../pic32mx/lib/size/libc.a(strtof.o)
 .debug_pubnames
                0x00002b7d       0x1f /opt/microchip/xc32/v1.32/bin/bin/../../lib/gcc/pic32mx/4.5.2/../../../../pic32mx/lib/size/libc.a(snprintf.o)
 .debug_pubnames
                0x00002b9c       0x20 /opt/microchip/xc32/v1.32/bin/bin/../../lib/gcc/pic32mx/4.5.2/../../../../pic32mx/lib/size/libc.a(vsnprintf.o)
 .debug_pubnames
                0x00002bbc       0x1f /opt/microchip/xc32/v1.32/bin/bin/../../lib/gcc/pic32mx/4.5.2/../../../../pic32mx/lib/size/libc.a(doprnt.o)
 .debug_pubnames
                0x00002bdb       0x1c /opt/microchip/xc32/v1.32/bin/bin/../../lib/gcc/pic32mx/4.5.2/../../../../pic32mx/lib/size/libc.a(_fputc_simple.o)
 .debug_pubnames
                0x00002bf7       0x1e /opt/microchip/xc32/v1.32/bin/bin/../../lib/gcc/pic32mx/4.5.2/../../../../pic32mx/lib/size/libc.a(_flsbuf_simple.o)
 .debug_pubnames
                0x00002c15       0x1c /opt/microchip/xc32/v1.32/bin/bin/../../lib/gcc/pic32mx/4.5.2/../../../../pic32mx/lib/size/libpic32.a(write.o)
 .debug_pubnames
                0x00002c31       0x20 /opt/microchip/xc32/v1.32/bin/bin/../../lib/gcc/pic32mx/4.5.2/../../../../pic32mx/lib/size/libpic32.a(_mon_putc.o)
 .debug_pubnames
                0x00002c51       0x1f /opt/microchip/xc32/v1.32/bin/bin/../../lib/gcc/pic32mx/4.5.2/../../../../pic32mx/lib/size/libm.a(__strtof.o)
 .debug_pubnames
                0x00002c70       0x22 /opt/microchip/xc32/v1.32/bin/bin/../../lib/gcc/pic32mx/4.5.2/../../../../pic32mx/lib/size/libe.a(_floatdisf.o)
 .debug_pubnames
                0x00002c92       0x1f /opt/microchip/xc32/v1.32/bin/bin/../../lib/gcc/pic32mx/4.5.2/../../../../pic32mx/lib/size/libe.a(_ldexpf.o)
 .debug_pubnames
                0x00002cb1       0x20 /opt/microchip/xc32/v1.32/bin/bin/../../lib/gcc/pic32mx/4.5.2/size/libgcc.a(_lshrdi3.o)
 .debug_pubnames
                0x00002cd1       0x24 /opt/microchip/xc32/v1.32/bin/bin/../../lib/gcc/pic32mx/4.5.2/size/libgcc.a(_floatundisf.o)
 .debug_pubnames
                0x00002cf5       0x20 /opt/microchip/xc32/v1.32/bin/bin/../../lib/gcc/pic32mx/4.5.2/size/libgcc.a(_udivdi3.o)
 .debug_pubnames
                0x00002d15       0x20 /opt/microchip/xc32/v1.32/bin/bin/../../lib/gcc/pic32mx/4.5.2/size/libgcc.a(_umoddi3.o)
 .debug_pubnames
                0x00002d35       0x24 /opt/microchip/xc32/v1.32/bin/bin/../../lib/gcc/pic32mx/4.5.2/size/libgcc.a(floatunsisf.o)

.debug_info     0x00000000    0x1a276
 *(.debug_info .gnu.linkonce.wi.*)
 .debug_info    0x00000000      0x3c6 build/pickit3/production/_ext/1248472724/compiler.o
 .debug_info    0x000003c6        0x0 build/pickit3/production/_ext/1248472724/debug.o
 .debug_info    0x000003c6      0x198 build/pickit3/production/_ext/1248472724/document.o
 .debug_info    0x0000055e     0x2093 build/pickit3/production/_ext/1248472724/editor.o
 .debug_info    0x000025f1      0x45c build/pickit3/production/_ext/1248472724/error.o
 .debug_info    0x00002a4d      0x3c3 build/pickit3/production/_ext/1248472724/exception.o
 .debug_info    0x00002e10      0x5d1 build/pickit3/production/_ext/1248472724/file.o
 .debug_info    0x000033e1      0x79c build/pickit3/production/_ext/1248472724/float.o
 .debug_info    0x00003b7d      0xd9c build/pickit3/production/_ext/1248472724/function.o
 .debug_info    0x00004919      0x464 build/pickit3/production/_ext/1248472724/globalvars.o
 .debug_info    0x00004d7d      0x3a9 build/pickit3/production/_ext/1248472724/keyinput.o
 .debug_info    0x00005126     0x164b build/pickit3/production/_ext/1248472724/library.o
 .debug_info    0x00006771      0x6c0 build/pickit3/production/_ext/1248472724/linker.o
 .debug_info    0x00006e31      0x843 build/pickit3/production/_ext/1248472724/main.o
 .debug_info    0x00007674      0x3df build/pickit3/production/_ext/1248472724/memory.o
 .debug_info    0x00007a53      0xe3c build/pickit3/production/_ext/1248472724/music.o
 .debug_info    0x0000888f      0x6f3 build/pickit3/production/_ext/1248472724/operator.o
 .debug_info    0x00008f82      0x44d build/pickit3/production/_ext/1248472724/run.o
 .debug_info    0x000093cf     0x140b build/pickit3/production/_ext/1248472724/statement.o
 .debug_info    0x0000a7da      0x62e build/pickit3/production/_ext/1248472724/string.o
 .debug_info    0x0000ae08      0x558 build/pickit3/production/_ext/1248472724/value.o
 .debug_info    0x0000b360       0x6a build/pickit3/production/_ext/618058229/crt0.o
 .debug_info    0x0000b3ca      0x37e build/pickit3/production/_ext/618058229/fontx2.o
 .debug_info    0x0000b748     0x1fdd source/lib_videoout_machikania.X.a(videoout.o)
 .debug_info    0x0000d725      0x445 source/lib_videoout_machikania.X.a(textvideolib.o)
 .debug_info    0x0000db6a      0x7bb source/lib_videoout_machikania.X.a(graphvideolib.o)
 .debug_info    0x0000e325     0x1c3d source/ps2keyboard.X.a(ps2keyboard.o)
 .debug_info    0x0000ff62     0x4652 source/libsdfsio.a(FSIO.o)
 .debug_info    0x000145b4     0x27a8 source/libsdfsio.a(SD-SPI.o)
 .debug_info    0x00016d5c       0xb2 /opt/microchip/xc32/v1.32/bin/bin/../../lib/gcc/pic32mx/4.5.2/../../../../pic32mx/lib/size/libmchp_peripheral_32MX150F128B.a(soft_reset_lib.o)
 .debug_info    0x00016e0e       0xc0 /opt/microchip/xc32/v1.32/bin/bin/../../lib/gcc/pic32mx/4.5.2/../../../../pic32mx/lib/size/libmchp_peripheral_32MX150F128B.a(osc_config_lib.o)
 .debug_info    0x00016ece       0xb6 /opt/microchip/xc32/v1.32/bin/bin/../../lib/gcc/pic32mx/4.5.2/../../../../pic32mx/lib/size/libmchp_peripheral_32MX150F128B.a(int_disable_interrupts_lib.o)
 .debug_info    0x00016f84       0xb6 /opt/microchip/xc32/v1.32/bin/bin/../../lib/gcc/pic32mx/4.5.2/../../../../pic32mx/lib/size/libmchp_peripheral_32MX150F128B.a(int_restore_interrupts_lib.o)
 .debug_info    0x0001703a       0xbc /opt/microchip/xc32/v1.32/bin/bin/../../lib/gcc/pic32mx/4.5.2/../../../../pic32mx/lib/size/libmchp_peripheral_32MX150F128B.a(int_enable_mv_int_lib.o)
 .debug_info    0x000170f6       0xa8 /opt/microchip/xc32/v1.32/bin/bin/../../lib/gcc/pic32mx/4.5.2/../../../../pic32mx/lib/size/libmchp_peripheral_32MX150F128B.a(spi_getc_spi2_lib_legacy.o)
 .debug_info    0x0001719e       0xa8 /opt/microchip/xc32/v1.32/bin/bin/../../lib/gcc/pic32mx/4.5.2/../../../../pic32mx/lib/size/libmchp_peripheral_32MX150F128B.a(spi_open_spi2_lib_legacy.o)
 .debug_info    0x00017246        0x0 /opt/microchip/xc32/v1.32/bin/bin/../../lib/gcc/pic32mx/4.5.2/../../../../pic32mx/lib/size/libmchp_peripheral_32MX150F128B.a(spi_brg_tbl_lib_legacy.o)
 .debug_info    0x00017246       0xa6 /opt/microchip/xc32/v1.32/bin/bin/../../lib/gcc/pic32mx/4.5.2/../../../../pic32mx/lib/size/libmchp_peripheral_32MX150F128B.a(nvm_write_word_lib.o)
 .debug_info    0x000172ec       0xb4 /opt/microchip/xc32/v1.32/bin/bin/../../lib/gcc/pic32mx/4.5.2/../../../../pic32mx/lib/size/libmchp_peripheral_32MX150F128B.a(int_enable_interrupts_lib.o)
 .debug_info    0x000173a0       0xc7 /opt/microchip/xc32/v1.32/bin/bin/../../lib/gcc/pic32mx/4.5.2/../../../../pic32mx/lib/size/libmchp_peripheral_32MX150F128B.a(nvm_operation_lib.o)
 .debug_info    0x00017467       0xa8 /opt/microchip/xc32/v1.32/bin/bin/../../lib/gcc/pic32mx/4.5.2/../../../../pic32mx/lib/size/libm.a(w_acosf.o)
 .debug_info    0x0001750f       0xa8 /opt/microchip/xc32/v1.32/bin/bin/../../lib/gcc/pic32mx/4.5.2/../../../../pic32mx/lib/size/libm.a(w_asinf.o)
 .debug_info    0x000175b7       0xc6 /opt/microchip/xc32/v1.32/bin/bin/../../lib/gcc/pic32mx/4.5.2/../../../../pic32mx/lib/size/libm.a(w_atan2f.o)
 .debug_info    0x0001767d       0xa8 /opt/microchip/xc32/v1.32/bin/bin/../../lib/gcc/pic32mx/4.5.2/../../../../pic32mx/lib/size/libm.a(w_coshf.o)
 .debug_info    0x00017725       0xa6 /opt/microchip/xc32/v1.32/bin/bin/../../lib/gcc/pic32mx/4.5.2/../../../../pic32mx/lib/size/libm.a(w_expf.o)
 .debug_info    0x000177cb       0xaa /opt/microchip/xc32/v1.32/bin/bin/../../lib/gcc/pic32mx/4.5.2/../../../../pic32mx/lib/size/libm.a(w_log10f.o)
 .debug_info    0x00017875       0xa6 /opt/microchip/xc32/v1.32/bin/bin/../../lib/gcc/pic32mx/4.5.2/../../../../pic32mx/lib/size/libm.a(w_logf.o)
 .debug_info    0x0001791b       0xa6 /opt/microchip/xc32/v1.32/bin/bin/../../lib/gcc/pic32mx/4.5.2/../../../../pic32mx/lib/size/libm.a(w_powf.o)
 .debug_info    0x000179c1       0xa8 /opt/microchip/xc32/v1.32/bin/bin/../../lib/gcc/pic32mx/4.5.2/../../../../pic32mx/lib/size/libm.a(w_sinhf.o)
 .debug_info    0x00017a69       0xa8 /opt/microchip/xc32/v1.32/bin/bin/../../lib/gcc/pic32mx/4.5.2/../../../../pic32mx/lib/size/libm.a(w_sqrtf.o)
 .debug_info    0x00017b11      0x19e /opt/microchip/xc32/v1.32/bin/bin/../../lib/gcc/pic32mx/4.5.2/../../../../pic32mx/lib/size/libm.a(support.o)
 .debug_info    0x00017caf        0x0 /opt/microchip/xc32/v1.32/bin/bin/../../lib/gcc/pic32mx/4.5.2/../../../../pic32mx/lib/size/libm.a(s_lib_ver.o)
 .debug_info    0x00017caf       0xde /opt/microchip/xc32/v1.32/bin/bin/../../lib/gcc/pic32mx/4.5.2/../../../../pic32mx/lib/size/libpic32.a(default-bootstrap-exception-handler.o)
 .debug_info    0x00017d8d       0xb8 /opt/microchip/xc32/v1.32/bin/bin/../../lib/gcc/pic32mx/4.5.2/../../../../pic32mx/lib/size/libpic32.a(default-on-reset.o)
 .debug_info    0x00017e45       0xc0 /opt/microchip/xc32/v1.32/bin/bin/../../lib/gcc/pic32mx/4.5.2/../../../../pic32mx/lib/size/libpic32.a(default-on-bootstrap.o)
 .debug_info    0x00017f05        0x0 /opt/microchip/xc32/v1.32/bin/bin/../../lib/gcc/pic32mx/4.5.2/../../../../pic32mx/lib/size/libpic32.a(errno.o)
 .debug_info    0x00017f05      0x111 /opt/microchip/xc32/v1.32/bin/bin/../../lib/gcc/pic32mx/4.5.2/../../../../pic32mx/lib/size/libpic32.a(isinf.o)
 .debug_info    0x00018016       0xb9 /opt/microchip/xc32/v1.32/bin/bin/../../lib/gcc/pic32mx/4.5.2/../../../../pic32mx/lib/size/libe.a(_unorddf2.o)
 .debug_info    0x000180cf      0x215 /opt/microchip/xc32/v1.32/bin/bin/../../lib/gcc/pic32mx/4.5.2/../../../../pic32mx/lib/size/libc.a(ctypef.o)
 .debug_info    0x000182e4       0xb3 /opt/microchip/xc32/v1.32/bin/bin/../../lib/gcc/pic32mx/4.5.2/../../../../pic32mx/lib/size/libc.a(strncpy.o)
 .debug_info    0x00018397       0xdf /opt/microchip/xc32/v1.32/bin/bin/../../lib/gcc/pic32mx/4.5.2/../../../../pic32mx/lib/size/libc.a(strtof.o)
 .debug_info    0x00018476       0xb5 /opt/microchip/xc32/v1.32/bin/bin/../../lib/gcc/pic32mx/4.5.2/../../../../pic32mx/lib/size/libc.a(snprintf.o)
 .debug_info    0x0001852b       0xb7 /opt/microchip/xc32/v1.32/bin/bin/../../lib/gcc/pic32mx/4.5.2/../../../../pic32mx/lib/size/libc.a(vsnprintf.o)
 .debug_info    0x000185e2        0x0 /opt/microchip/xc32/v1.32/bin/bin/../../lib/gcc/pic32mx/4.5.2/../../../../pic32mx/lib/size/libc.a(ctype.o)
 .debug_info    0x000185e2       0xdd /opt/microchip/xc32/v1.32/bin/bin/../../lib/gcc/pic32mx/4.5.2/../../../../pic32mx/lib/size/libc.a(doprnt.o)
 .debug_info    0x000186bf       0xaf /opt/microchip/xc32/v1.32/bin/bin/../../lib/gcc/pic32mx/4.5.2/../../../../pic32mx/lib/size/libc.a(_fputc_simple.o)
 .debug_info    0x0001876e        0x0 /opt/microchip/xc32/v1.32/bin/bin/../../lib/gcc/pic32mx/4.5.2/../../../../pic32mx/lib/size/libc.a(powersf.o)
 .debug_info    0x0001876e        0x0 /opt/microchip/xc32/v1.32/bin/bin/../../lib/gcc/pic32mx/4.5.2/../../../../pic32mx/lib/size/libc.a(_iob.o)
 .debug_info    0x0001876e       0xb2 /opt/microchip/xc32/v1.32/bin/bin/../../lib/gcc/pic32mx/4.5.2/../../../../pic32mx/lib/size/libc.a(_flsbuf_simple.o)
 .debug_info    0x00018820       0xa9 /opt/microchip/xc32/v1.32/bin/bin/../../lib/gcc/pic32mx/4.5.2/../../../../pic32mx/lib/size/libpic32.a(write.o)
 .debug_info    0x000188c9       0xb1 /opt/microchip/xc32/v1.32/bin/bin/../../lib/gcc/pic32mx/4.5.2/../../../../pic32mx/lib/size/libpic32.a(_mon_putc.o)
 .debug_info    0x0001897a        0x0 /opt/microchip/xc32/v1.32/bin/bin/../../lib/gcc/pic32mx/4.5.2/../../../../pic32mx/lib/size/libpic32.a(xc32_uart.o)
 .debug_info    0x0001897a       0xc2 /opt/microchip/xc32/v1.32/bin/bin/../../lib/gcc/pic32mx/4.5.2/../../../../pic32mx/lib/size/libm.a(__strtof.o)
 .debug_info    0x00018a3c       0xc7 /opt/microchip/xc32/v1.32/bin/bin/../../lib/gcc/pic32mx/4.5.2/../../../../pic32mx/lib/size/libe.a(_floatdisf.o)
 .debug_info    0x00018b03       0xc4 /opt/microchip/xc32/v1.32/bin/bin/../../lib/gcc/pic32mx/4.5.2/../../../../pic32mx/lib/size/libe.a(_ldexpf.o)
 .debug_info    0x00018bc7      0x34e /opt/microchip/xc32/v1.32/bin/bin/../../lib/gcc/pic32mx/4.5.2/size/libgcc.a(_lshrdi3.o)
 .debug_info    0x00018f15      0x2d5 /opt/microchip/xc32/v1.32/bin/bin/../../lib/gcc/pic32mx/4.5.2/size/libgcc.a(_floatundisf.o)
 .debug_info    0x000191ea      0x795 /opt/microchip/xc32/v1.32/bin/bin/../../lib/gcc/pic32mx/4.5.2/size/libgcc.a(_udivdi3.o)
 .debug_info    0x0001997f      0x7cb /opt/microchip/xc32/v1.32/bin/bin/../../lib/gcc/pic32mx/4.5.2/size/libgcc.a(_umoddi3.o)
 .debug_info    0x0001a14a      0x12c /opt/microchip/xc32/v1.32/bin/bin/../../lib/gcc/pic32mx/4.5.2/size/libgcc.a(floatunsisf.o)

.debug_abbrev   0x00000000     0x307a
 *(.debug_abbrev)
 .debug_abbrev  0x00000000      0x108 build/pickit3/production/_ext/1248472724/compiler.o
 .debug_abbrev  0x00000108        0x1 build/pickit3/production/_ext/1248472724/debug.o
 .debug_abbrev  0x00000109       0x66 build/pickit3/production/_ext/1248472724/document.o
 .debug_abbrev  0x0000016f      0x2e8 build/pickit3/production/_ext/1248472724/editor.o
 .debug_abbrev  0x00000457      0x11b build/pickit3/production/_ext/1248472724/error.o
 .debug_abbrev  0x00000572      0x123 build/pickit3/production/_ext/1248472724/exception.o
 .debug_abbrev  0x00000695      0x13a build/pickit3/production/_ext/1248472724/file.o
 .debug_abbrev  0x000007cf       0xc1 build/pickit3/production/_ext/1248472724/float.o
 .debug_abbrev  0x00000890      0x13c build/pickit3/production/_ext/1248472724/function.o
 .debug_abbrev  0x000009cc       0x6c build/pickit3/production/_ext/1248472724/globalvars.o
 .debug_abbrev  0x00000a38       0xcb build/pickit3/production/_ext/1248472724/keyinput.o
 .debug_abbrev  0x00000b03      0x219 build/pickit3/production/_ext/1248472724/library.o
 .debug_abbrev  0x00000d1c       0xd5 build/pickit3/production/_ext/1248472724/linker.o
 .debug_abbrev  0x00000df1      0x179 build/pickit3/production/_ext/1248472724/main.o
 .debug_abbrev  0x00000f6a       0xff build/pickit3/production/_ext/1248472724/memory.o
 .debug_abbrev  0x00001069      0x1c1 build/pickit3/production/_ext/1248472724/music.o
 .debug_abbrev  0x0000122a       0xfd build/pickit3/production/_ext/1248472724/operator.o
 .debug_abbrev  0x00001327       0xd5 build/pickit3/production/_ext/1248472724/run.o
 .debug_abbrev  0x000013fc      0x19d build/pickit3/production/_ext/1248472724/statement.o
 .debug_abbrev  0x00001599       0xb2 build/pickit3/production/_ext/1248472724/string.o
 .debug_abbrev  0x0000164b       0xe7 build/pickit3/production/_ext/1248472724/value.o
 .debug_abbrev  0x00001732       0x12 build/pickit3/production/_ext/618058229/crt0.o
 .debug_abbrev  0x00001744      0x154 build/pickit3/production/_ext/618058229/fontx2.o
 .debug_abbrev  0x00001898      0x206 source/lib_videoout_machikania.X.a(videoout.o)
 .debug_abbrev  0x00001a9e      0x110 source/lib_videoout_machikania.X.a(textvideolib.o)
 .debug_abbrev  0x00001bae       0xfb source/lib_videoout_machikania.X.a(graphvideolib.o)
 .debug_abbrev  0x00001ca9      0x293 source/ps2keyboard.X.a(ps2keyboard.o)
 .debug_abbrev  0x00001f3c      0x354 source/libsdfsio.a(FSIO.o)
 .debug_abbrev  0x00002290      0x36d source/libsdfsio.a(SD-SPI.o)
 .debug_abbrev  0x000025fd       0x34 /opt/microchip/xc32/v1.32/bin/bin/../../lib/gcc/pic32mx/4.5.2/../../../../pic32mx/lib/size/libmchp_peripheral_32MX150F128B.a(soft_reset_lib.o)
 .debug_abbrev  0x00002631       0x34 /opt/microchip/xc32/v1.32/bin/bin/../../lib/gcc/pic32mx/4.5.2/../../../../pic32mx/lib/size/libmchp_peripheral_32MX150F128B.a(osc_config_lib.o)
 .debug_abbrev  0x00002665       0x25 /opt/microchip/xc32/v1.32/bin/bin/../../lib/gcc/pic32mx/4.5.2/../../../../pic32mx/lib/size/libmchp_peripheral_32MX150F128B.a(int_disable_interrupts_lib.o)
 .debug_abbrev  0x0000268a       0x25 /opt/microchip/xc32/v1.32/bin/bin/../../lib/gcc/pic32mx/4.5.2/../../../../pic32mx/lib/size/libmchp_peripheral_32MX150F128B.a(int_restore_interrupts_lib.o)
 .debug_abbrev  0x000026af       0x25 /opt/microchip/xc32/v1.32/bin/bin/../../lib/gcc/pic32mx/4.5.2/../../../../pic32mx/lib/size/libmchp_peripheral_32MX150F128B.a(int_enable_mv_int_lib.o)
 .debug_abbrev  0x000026d4       0x25 /opt/microchip/xc32/v1.32/bin/bin/../../lib/gcc/pic32mx/4.5.2/../../../../pic32mx/lib/size/libmchp_peripheral_32MX150F128B.a(spi_getc_spi2_lib_legacy.o)
 .debug_abbrev  0x000026f9       0x25 /opt/microchip/xc32/v1.32/bin/bin/../../lib/gcc/pic32mx/4.5.2/../../../../pic32mx/lib/size/libmchp_peripheral_32MX150F128B.a(spi_open_spi2_lib_legacy.o)
 .debug_abbrev  0x0000271e        0x1 /opt/microchip/xc32/v1.32/bin/bin/../../lib/gcc/pic32mx/4.5.2/../../../../pic32mx/lib/size/libmchp_peripheral_32MX150F128B.a(spi_brg_tbl_lib_legacy.o)
 .debug_abbrev  0x0000271f       0x25 /opt/microchip/xc32/v1.32/bin/bin/../../lib/gcc/pic32mx/4.5.2/../../../../pic32mx/lib/size/libmchp_peripheral_32MX150F128B.a(nvm_write_word_lib.o)
 .debug_abbrev  0x00002744       0x25 /opt/microchip/xc32/v1.32/bin/bin/../../lib/gcc/pic32mx/4.5.2/../../../../pic32mx/lib/size/libmchp_peripheral_32MX150F128B.a(int_enable_interrupts_lib.o)
 .debug_abbrev  0x00002769       0x34 /opt/microchip/xc32/v1.32/bin/bin/../../lib/gcc/pic32mx/4.5.2/../../../../pic32mx/lib/size/libmchp_peripheral_32MX150F128B.a(nvm_operation_lib.o)
 .debug_abbrev  0x0000279d       0x23 /opt/microchip/xc32/v1.32/bin/bin/../../lib/gcc/pic32mx/4.5.2/../../../../pic32mx/lib/size/libm.a(w_acosf.o)
 .debug_abbrev  0x000027c0       0x23 /opt/microchip/xc32/v1.32/bin/bin/../../lib/gcc/pic32mx/4.5.2/../../../../pic32mx/lib/size/libm.a(w_asinf.o)
 .debug_abbrev  0x000027e3       0x3f /opt/microchip/xc32/v1.32/bin/bin/../../lib/gcc/pic32mx/4.5.2/../../../../pic32mx/lib/size/libm.a(w_atan2f.o)
 .debug_abbrev  0x00002822       0x23 /opt/microchip/xc32/v1.32/bin/bin/../../lib/gcc/pic32mx/4.5.2/../../../../pic32mx/lib/size/libm.a(w_coshf.o)
 .debug_abbrev  0x00002845       0x23 /opt/microchip/xc32/v1.32/bin/bin/../../lib/gcc/pic32mx/4.5.2/../../../../pic32mx/lib/size/libm.a(w_expf.o)
 .debug_abbrev  0x00002868       0x23 /opt/microchip/xc32/v1.32/bin/bin/../../lib/gcc/pic32mx/4.5.2/../../../../pic32mx/lib/size/libm.a(w_log10f.o)
 .debug_abbrev  0x0000288b       0x23 /opt/microchip/xc32/v1.32/bin/bin/../../lib/gcc/pic32mx/4.5.2/../../../../pic32mx/lib/size/libm.a(w_logf.o)
 .debug_abbrev  0x000028ae       0x23 /opt/microchip/xc32/v1.32/bin/bin/../../lib/gcc/pic32mx/4.5.2/../../../../pic32mx/lib/size/libm.a(w_powf.o)
 .debug_abbrev  0x000028d1       0x23 /opt/microchip/xc32/v1.32/bin/bin/../../lib/gcc/pic32mx/4.5.2/../../../../pic32mx/lib/size/libm.a(w_sinhf.o)
 .debug_abbrev  0x000028f4       0x23 /opt/microchip/xc32/v1.32/bin/bin/../../lib/gcc/pic32mx/4.5.2/../../../../pic32mx/lib/size/libm.a(w_sqrtf.o)
 .debug_abbrev  0x00002917       0x52 /opt/microchip/xc32/v1.32/bin/bin/../../lib/gcc/pic32mx/4.5.2/../../../../pic32mx/lib/size/libm.a(support.o)
 .debug_abbrev  0x00002969        0x1 /opt/microchip/xc32/v1.32/bin/bin/../../lib/gcc/pic32mx/4.5.2/../../../../pic32mx/lib/size/libm.a(s_lib_ver.o)
 .debug_abbrev  0x0000296a       0x23 /opt/microchip/xc32/v1.32/bin/bin/../../lib/gcc/pic32mx/4.5.2/../../../../pic32mx/lib/size/libpic32.a(default-bootstrap-exception-handler.o)
 .debug_abbrev  0x0000298d       0x23 /opt/microchip/xc32/v1.32/bin/bin/../../lib/gcc/pic32mx/4.5.2/../../../../pic32mx/lib/size/libpic32.a(default-on-reset.o)
 .debug_abbrev  0x000029b0       0x23 /opt/microchip/xc32/v1.32/bin/bin/../../lib/gcc/pic32mx/4.5.2/../../../../pic32mx/lib/size/libpic32.a(default-on-bootstrap.o)
 .debug_abbrev  0x000029d3        0x1 /opt/microchip/xc32/v1.32/bin/bin/../../lib/gcc/pic32mx/4.5.2/../../../../pic32mx/lib/size/libpic32.a(errno.o)
 .debug_abbrev  0x000029d4       0x23 /opt/microchip/xc32/v1.32/bin/bin/../../lib/gcc/pic32mx/4.5.2/../../../../pic32mx/lib/size/libpic32.a(isinf.o)
 .debug_abbrev  0x000029f7       0x30 /opt/microchip/xc32/v1.32/bin/bin/../../lib/gcc/pic32mx/4.5.2/../../../../pic32mx/lib/size/libe.a(_unorddf2.o)
 .debug_abbrev  0x00002a27       0x23 /opt/microchip/xc32/v1.32/bin/bin/../../lib/gcc/pic32mx/4.5.2/../../../../pic32mx/lib/size/libc.a(ctypef.o)
 .debug_abbrev  0x00002a4a       0x23 /opt/microchip/xc32/v1.32/bin/bin/../../lib/gcc/pic32mx/4.5.2/../../../../pic32mx/lib/size/libc.a(strncpy.o)
 .debug_abbrev  0x00002a6d       0x47 /opt/microchip/xc32/v1.32/bin/bin/../../lib/gcc/pic32mx/4.5.2/../../../../pic32mx/lib/size/libc.a(strtof.o)
 .debug_abbrev  0x00002ab4       0x23 /opt/microchip/xc32/v1.32/bin/bin/../../lib/gcc/pic32mx/4.5.2/../../../../pic32mx/lib/size/libc.a(snprintf.o)
 .debug_abbrev  0x00002ad7       0x23 /opt/microchip/xc32/v1.32/bin/bin/../../lib/gcc/pic32mx/4.5.2/../../../../pic32mx/lib/size/libc.a(vsnprintf.o)
 .debug_abbrev  0x00002afa        0x1 /opt/microchip/xc32/v1.32/bin/bin/../../lib/gcc/pic32mx/4.5.2/../../../../pic32mx/lib/size/libc.a(ctype.o)
 .debug_abbrev  0x00002afb       0x34 /opt/microchip/xc32/v1.32/bin/bin/../../lib/gcc/pic32mx/4.5.2/../../../../pic32mx/lib/size/libc.a(doprnt.o)
 .debug_abbrev  0x00002b2f       0x23 /opt/microchip/xc32/v1.32/bin/bin/../../lib/gcc/pic32mx/4.5.2/../../../../pic32mx/lib/size/libc.a(_fputc_simple.o)
 .debug_abbrev  0x00002b52        0x1 /opt/microchip/xc32/v1.32/bin/bin/../../lib/gcc/pic32mx/4.5.2/../../../../pic32mx/lib/size/libc.a(powersf.o)
 .debug_abbrev  0x00002b53        0x1 /opt/microchip/xc32/v1.32/bin/bin/../../lib/gcc/pic32mx/4.5.2/../../../../pic32mx/lib/size/libc.a(_iob.o)
 .debug_abbrev  0x00002b54       0x23 /opt/microchip/xc32/v1.32/bin/bin/../../lib/gcc/pic32mx/4.5.2/../../../../pic32mx/lib/size/libc.a(_flsbuf_simple.o)
 .debug_abbrev  0x00002b77       0x23 /opt/microchip/xc32/v1.32/bin/bin/../../lib/gcc/pic32mx/4.5.2/../../../../pic32mx/lib/size/libpic32.a(write.o)
 .debug_abbrev  0x00002b9a       0x23 /opt/microchip/xc32/v1.32/bin/bin/../../lib/gcc/pic32mx/4.5.2/../../../../pic32mx/lib/size/libpic32.a(_mon_putc.o)
 .debug_abbrev  0x00002bbd        0x1 /opt/microchip/xc32/v1.32/bin/bin/../../lib/gcc/pic32mx/4.5.2/../../../../pic32mx/lib/size/libpic32.a(xc32_uart.o)
 .debug_abbrev  0x00002bbe       0x30 /opt/microchip/xc32/v1.32/bin/bin/../../lib/gcc/pic32mx/4.5.2/../../../../pic32mx/lib/size/libm.a(__strtof.o)
 .debug_abbrev  0x00002bee       0x30 /opt/microchip/xc32/v1.32/bin/bin/../../lib/gcc/pic32mx/4.5.2/../../../../pic32mx/lib/size/libe.a(_floatdisf.o)
 .debug_abbrev  0x00002c1e       0x30 /opt/microchip/xc32/v1.32/bin/bin/../../lib/gcc/pic32mx/4.5.2/../../../../pic32mx/lib/size/libe.a(_ldexpf.o)
 .debug_abbrev  0x00002c4e       0xe3 /opt/microchip/xc32/v1.32/bin/bin/../../lib/gcc/pic32mx/4.5.2/size/libgcc.a(_lshrdi3.o)
 .debug_abbrev  0x00002d31       0x79 /opt/microchip/xc32/v1.32/bin/bin/../../lib/gcc/pic32mx/4.5.2/size/libgcc.a(_floatundisf.o)
 .debug_abbrev  0x00002daa      0x132 /opt/microchip/xc32/v1.32/bin/bin/../../lib/gcc/pic32mx/4.5.2/size/libgcc.a(_udivdi3.o)
 .debug_abbrev  0x00002edc      0x13f /opt/microchip/xc32/v1.32/bin/bin/../../lib/gcc/pic32mx/4.5.2/size/libgcc.a(_umoddi3.o)
 .debug_abbrev  0x0000301b       0x5f /opt/microchip/xc32/v1.32/bin/bin/../../lib/gcc/pic32mx/4.5.2/size/libgcc.a(floatunsisf.o)

.debug_line     0x00000000     0x67b4
 *(.debug_line)
 .debug_line    0x00000000      0x107 build/pickit3/production/_ext/1248472724/compiler.o
 .debug_line    0x00000107        0x0 build/pickit3/production/_ext/1248472724/debug.o
 .debug_line    0x00000107       0x6b build/pickit3/production/_ext/1248472724/document.o
 .debug_line    0x00000172      0x8dd build/pickit3/production/_ext/1248472724/editor.o
 .debug_line    0x00000a4f      0x10c build/pickit3/production/_ext/1248472724/error.o
 .debug_line    0x00000b5b      0x185 build/pickit3/production/_ext/1248472724/exception.o
 .debug_line    0x00000ce0       0xe1 build/pickit3/production/_ext/1248472724/file.o
 .debug_line    0x00000dc1      0x10c build/pickit3/production/_ext/1248472724/float.o
 .debug_line    0x00000ecd      0x2d6 build/pickit3/production/_ext/1248472724/function.o
 .debug_line    0x000011a3       0x6b build/pickit3/production/_ext/1248472724/globalvars.o
 .debug_line    0x0000120e      0x15b build/pickit3/production/_ext/1248472724/keyinput.o
 .debug_line    0x00001369      0x5f7 build/pickit3/production/_ext/1248472724/library.o
 .debug_line    0x00001960      0x17d build/pickit3/production/_ext/1248472724/linker.o
 .debug_line    0x00001add      0x1be build/pickit3/production/_ext/1248472724/main.o
 .debug_line    0x00001c9b      0x13b build/pickit3/production/_ext/1248472724/memory.o
 .debug_line    0x00001dd6      0x2ba build/pickit3/production/_ext/1248472724/music.o
 .debug_line    0x00002090      0x168 build/pickit3/production/_ext/1248472724/operator.o
 .debug_line    0x000021f8      0x115 build/pickit3/production/_ext/1248472724/run.o
 .debug_line    0x0000230d      0x738 build/pickit3/production/_ext/1248472724/statement.o
 .debug_line    0x00002a45      0x151 build/pickit3/production/_ext/1248472724/string.o
 .debug_line    0x00002b96      0x19d build/pickit3/production/_ext/1248472724/value.o
 .debug_line    0x00002d33      0x107 build/pickit3/production/_ext/618058229/crt0.o
 .debug_line    0x00002e3a       0xc5 build/pickit3/production/_ext/618058229/fontx2.o
 .debug_line    0x00002eff      0x69b source/lib_videoout_machikania.X.a(videoout.o)
 .debug_line    0x0000359a      0x11a source/lib_videoout_machikania.X.a(textvideolib.o)
 .debug_line    0x000036b4      0x2c6 source/lib_videoout_machikania.X.a(graphvideolib.o)
 .debug_line    0x0000397a      0x342 source/ps2keyboard.X.a(ps2keyboard.o)
 .debug_line    0x00003cbc      0xede source/libsdfsio.a(FSIO.o)
 .debug_line    0x00004b9a      0x3b3 source/libsdfsio.a(SD-SPI.o)
 .debug_line    0x00004f4d       0xbb /opt/microchip/xc32/v1.32/bin/bin/../../lib/gcc/pic32mx/4.5.2/../../../../pic32mx/lib/size/libmchp_peripheral_32MX150F128B.a(soft_reset_lib.o)
 .debug_line    0x00005008       0xb9 /opt/microchip/xc32/v1.32/bin/bin/../../lib/gcc/pic32mx/4.5.2/../../../../pic32mx/lib/size/libmchp_peripheral_32MX150F128B.a(osc_config_lib.o)
 .debug_line    0x000050c1       0x73 /opt/microchip/xc32/v1.32/bin/bin/../../lib/gcc/pic32mx/4.5.2/../../../../pic32mx/lib/size/libmchp_peripheral_32MX150F128B.a(int_disable_interrupts_lib.o)
 .debug_line    0x00005134       0x73 /opt/microchip/xc32/v1.32/bin/bin/../../lib/gcc/pic32mx/4.5.2/../../../../pic32mx/lib/size/libmchp_peripheral_32MX150F128B.a(int_restore_interrupts_lib.o)
 .debug_line    0x000051a7       0x6e /opt/microchip/xc32/v1.32/bin/bin/../../lib/gcc/pic32mx/4.5.2/../../../../pic32mx/lib/size/libmchp_peripheral_32MX150F128B.a(int_enable_mv_int_lib.o)
 .debug_line    0x00005215       0x71 /opt/microchip/xc32/v1.32/bin/bin/../../lib/gcc/pic32mx/4.5.2/../../../../pic32mx/lib/size/libmchp_peripheral_32MX150F128B.a(spi_getc_spi2_lib_legacy.o)
 .debug_line    0x00005286       0x71 /opt/microchip/xc32/v1.32/bin/bin/../../lib/gcc/pic32mx/4.5.2/../../../../pic32mx/lib/size/libmchp_peripheral_32MX150F128B.a(spi_open_spi2_lib_legacy.o)
 .debug_line    0x000052f7        0x0 /opt/microchip/xc32/v1.32/bin/bin/../../lib/gcc/pic32mx/4.5.2/../../../../pic32mx/lib/size/libmchp_peripheral_32MX150F128B.a(spi_brg_tbl_lib_legacy.o)
 .debug_line    0x000052f7       0x6b /opt/microchip/xc32/v1.32/bin/bin/../../lib/gcc/pic32mx/4.5.2/../../../../pic32mx/lib/size/libmchp_peripheral_32MX150F128B.a(nvm_write_word_lib.o)
 .debug_line    0x00005362       0x72 /opt/microchip/xc32/v1.32/bin/bin/../../lib/gcc/pic32mx/4.5.2/../../../../pic32mx/lib/size/libmchp_peripheral_32MX150F128B.a(int_enable_interrupts_lib.o)
 .debug_line    0x000053d4       0xbc /opt/microchip/xc32/v1.32/bin/bin/../../lib/gcc/pic32mx/4.5.2/../../../../pic32mx/lib/size/libmchp_peripheral_32MX150F128B.a(nvm_operation_lib.o)
 .debug_line    0x00005490       0x78 /opt/microchip/xc32/v1.32/bin/bin/../../lib/gcc/pic32mx/4.5.2/../../../../pic32mx/lib/size/libm.a(w_acosf.o)
 .debug_line    0x00005508       0x78 /opt/microchip/xc32/v1.32/bin/bin/../../lib/gcc/pic32mx/4.5.2/../../../../pic32mx/lib/size/libm.a(w_asinf.o)
 .debug_line    0x00005580       0x79 /opt/microchip/xc32/v1.32/bin/bin/../../lib/gcc/pic32mx/4.5.2/../../../../pic32mx/lib/size/libm.a(w_atan2f.o)
 .debug_line    0x000055f9       0x78 /opt/microchip/xc32/v1.32/bin/bin/../../lib/gcc/pic32mx/4.5.2/../../../../pic32mx/lib/size/libm.a(w_coshf.o)
 .debug_line    0x00005671       0x77 /opt/microchip/xc32/v1.32/bin/bin/../../lib/gcc/pic32mx/4.5.2/../../../../pic32mx/lib/size/libm.a(w_expf.o)
 .debug_line    0x000056e8       0x79 /opt/microchip/xc32/v1.32/bin/bin/../../lib/gcc/pic32mx/4.5.2/../../../../pic32mx/lib/size/libm.a(w_log10f.o)
 .debug_line    0x00005761       0x77 /opt/microchip/xc32/v1.32/bin/bin/../../lib/gcc/pic32mx/4.5.2/../../../../pic32mx/lib/size/libm.a(w_logf.o)
 .debug_line    0x000057d8       0x77 /opt/microchip/xc32/v1.32/bin/bin/../../lib/gcc/pic32mx/4.5.2/../../../../pic32mx/lib/size/libm.a(w_powf.o)
 .debug_line    0x0000584f       0x78 /opt/microchip/xc32/v1.32/bin/bin/../../lib/gcc/pic32mx/4.5.2/../../../../pic32mx/lib/size/libm.a(w_sinhf.o)
 .debug_line    0x000058c7       0x78 /opt/microchip/xc32/v1.32/bin/bin/../../lib/gcc/pic32mx/4.5.2/../../../../pic32mx/lib/size/libm.a(w_sqrtf.o)
 .debug_line    0x0000593f       0x76 /opt/microchip/xc32/v1.32/bin/bin/../../lib/gcc/pic32mx/4.5.2/../../../../pic32mx/lib/size/libm.a(support.o)
 .debug_line    0x000059b5        0x0 /opt/microchip/xc32/v1.32/bin/bin/../../lib/gcc/pic32mx/4.5.2/../../../../pic32mx/lib/size/libm.a(s_lib_ver.o)
 .debug_line    0x000059b5       0x97 /opt/microchip/xc32/v1.32/bin/bin/../../lib/gcc/pic32mx/4.5.2/../../../../pic32mx/lib/size/libpic32.a(default-bootstrap-exception-handler.o)
 .debug_line    0x00005a4c       0x84 /opt/microchip/xc32/v1.32/bin/bin/../../lib/gcc/pic32mx/4.5.2/../../../../pic32mx/lib/size/libpic32.a(default-on-reset.o)
 .debug_line    0x00005ad0       0x88 /opt/microchip/xc32/v1.32/bin/bin/../../lib/gcc/pic32mx/4.5.2/../../../../pic32mx/lib/size/libpic32.a(default-on-bootstrap.o)
 .debug_line    0x00005b58        0x0 /opt/microchip/xc32/v1.32/bin/bin/../../lib/gcc/pic32mx/4.5.2/../../../../pic32mx/lib/size/libpic32.a(errno.o)
 .debug_line    0x00005b58       0x79 /opt/microchip/xc32/v1.32/bin/bin/../../lib/gcc/pic32mx/4.5.2/../../../../pic32mx/lib/size/libpic32.a(isinf.o)
 .debug_line    0x00005bd1       0x7f /opt/microchip/xc32/v1.32/bin/bin/../../lib/gcc/pic32mx/4.5.2/../../../../pic32mx/lib/size/libe.a(_unorddf2.o)
 .debug_line    0x00005c50       0x70 /opt/microchip/xc32/v1.32/bin/bin/../../lib/gcc/pic32mx/4.5.2/../../../../pic32mx/lib/size/libc.a(ctypef.o)
 .debug_line    0x00005cc0       0x71 /opt/microchip/xc32/v1.32/bin/bin/../../lib/gcc/pic32mx/4.5.2/../../../../pic32mx/lib/size/libc.a(strncpy.o)
 .debug_line    0x00005d31       0x70 /opt/microchip/xc32/v1.32/bin/bin/../../lib/gcc/pic32mx/4.5.2/../../../../pic32mx/lib/size/libc.a(strtof.o)
 .debug_line    0x00005da1       0x72 /opt/microchip/xc32/v1.32/bin/bin/../../lib/gcc/pic32mx/4.5.2/../../../../pic32mx/lib/size/libc.a(snprintf.o)
 .debug_line    0x00005e13       0x73 /opt/microchip/xc32/v1.32/bin/bin/../../lib/gcc/pic32mx/4.5.2/../../../../pic32mx/lib/size/libc.a(vsnprintf.o)
 .debug_line    0x00005e86        0x0 /opt/microchip/xc32/v1.32/bin/bin/../../lib/gcc/pic32mx/4.5.2/../../../../pic32mx/lib/size/libc.a(ctype.o)
 .debug_line    0x00005e86       0x70 /opt/microchip/xc32/v1.32/bin/bin/../../lib/gcc/pic32mx/4.5.2/../../../../pic32mx/lib/size/libc.a(doprnt.o)
 .debug_line    0x00005ef6       0x6f /opt/microchip/xc32/v1.32/bin/bin/../../lib/gcc/pic32mx/4.5.2/../../../../pic32mx/lib/size/libc.a(_fputc_simple.o)
 .debug_line    0x00005f65        0x0 /opt/microchip/xc32/v1.32/bin/bin/../../lib/gcc/pic32mx/4.5.2/../../../../pic32mx/lib/size/libc.a(powersf.o)
 .debug_line    0x00005f65        0x0 /opt/microchip/xc32/v1.32/bin/bin/../../lib/gcc/pic32mx/4.5.2/../../../../pic32mx/lib/size/libc.a(_iob.o)
 .debug_line    0x00005f65       0x70 /opt/microchip/xc32/v1.32/bin/bin/../../lib/gcc/pic32mx/4.5.2/../../../../pic32mx/lib/size/libc.a(_flsbuf_simple.o)
 .debug_line    0x00005fd5       0x79 /opt/microchip/xc32/v1.32/bin/bin/../../lib/gcc/pic32mx/4.5.2/../../../../pic32mx/lib/size/libpic32.a(write.o)
 .debug_line    0x0000604e       0x7d /opt/microchip/xc32/v1.32/bin/bin/../../lib/gcc/pic32mx/4.5.2/../../../../pic32mx/lib/size/libpic32.a(_mon_putc.o)
 .debug_line    0x000060cb        0x0 /opt/microchip/xc32/v1.32/bin/bin/../../lib/gcc/pic32mx/4.5.2/../../../../pic32mx/lib/size/libpic32.a(xc32_uart.o)
 .debug_line    0x000060cb       0x79 /opt/microchip/xc32/v1.32/bin/bin/../../lib/gcc/pic32mx/4.5.2/../../../../pic32mx/lib/size/libm.a(__strtof.o)
 .debug_line    0x00006144       0x93 /opt/microchip/xc32/v1.32/bin/bin/../../lib/gcc/pic32mx/4.5.2/../../../../pic32mx/lib/size/libe.a(_floatdisf.o)
 .debug_line    0x000061d7       0x93 /opt/microchip/xc32/v1.32/bin/bin/../../lib/gcc/pic32mx/4.5.2/../../../../pic32mx/lib/size/libe.a(_ldexpf.o)
 .debug_line    0x0000626a       0xfa /opt/microchip/xc32/v1.32/bin/bin/../../lib/gcc/pic32mx/4.5.2/size/libgcc.a(_lshrdi3.o)
 .debug_line    0x00006364      0x105 /opt/microchip/xc32/v1.32/bin/bin/../../lib/gcc/pic32mx/4.5.2/size/libgcc.a(_floatundisf.o)
 .debug_line    0x00006469      0x168 /opt/microchip/xc32/v1.32/bin/bin/../../lib/gcc/pic32mx/4.5.2/size/libgcc.a(_udivdi3.o)
 .debug_line    0x000065d1      0x155 /opt/microchip/xc32/v1.32/bin/bin/../../lib/gcc/pic32mx/4.5.2/size/libgcc.a(_umoddi3.o)
 .debug_line    0x00006726       0x8e /opt/microchip/xc32/v1.32/bin/bin/../../lib/gcc/pic32mx/4.5.2/size/libgcc.a(floatunsisf.o)

.debug_frame    0x00000000     0x3198
 *(.debug_frame)
 .debug_frame   0x00000000       0xbc build/pickit3/production/_ext/1248472724/compiler.o
 .debug_frame   0x000000bc       0x20 build/pickit3/production/_ext/1248472724/document.o
 .debug_frame   0x000000dc      0x568 build/pickit3/production/_ext/1248472724/editor.o
 .debug_frame   0x00000644      0x130 build/pickit3/production/_ext/1248472724/error.o
 .debug_frame   0x00000774       0x60 build/pickit3/production/_ext/1248472724/exception.o
 .debug_frame   0x000007d4       0x6c build/pickit3/production/_ext/1248472724/file.o
 .debug_frame   0x00000840       0x64 build/pickit3/production/_ext/1248472724/float.o
 .debug_frame   0x000008a4      0x310 build/pickit3/production/_ext/1248472724/function.o
 .debug_frame   0x00000bb4       0xb4 build/pickit3/production/_ext/1248472724/keyinput.o
 .debug_frame   0x00000c68      0x340 build/pickit3/production/_ext/1248472724/library.o
 .debug_frame   0x00000fa8       0x84 build/pickit3/production/_ext/1248472724/linker.o
 .debug_frame   0x0000102c       0xd0 build/pickit3/production/_ext/1248472724/main.o
 .debug_frame   0x000010fc       0xa0 build/pickit3/production/_ext/1248472724/memory.o
 .debug_frame   0x0000119c      0x104 build/pickit3/production/_ext/1248472724/music.o
 .debug_frame   0x000012a0       0x70 build/pickit3/production/_ext/1248472724/operator.o
 .debug_frame   0x00001310       0x4c build/pickit3/production/_ext/1248472724/run.o
 .debug_frame   0x0000135c      0x4ec build/pickit3/production/_ext/1248472724/statement.o
 .debug_frame   0x00001848       0x60 build/pickit3/production/_ext/1248472724/string.o
 .debug_frame   0x000018a8       0xc0 build/pickit3/production/_ext/1248472724/value.o
 .debug_frame   0x00001968       0x8c build/pickit3/production/_ext/618058229/fontx2.o
 .debug_frame   0x000019f4      0x16c source/lib_videoout_machikania.X.a(videoout.o)
 .debug_frame   0x00001b60       0xf0 source/lib_videoout_machikania.X.a(textvideolib.o)
 .debug_frame   0x00001c50      0x1b8 source/lib_videoout_machikania.X.a(graphvideolib.o)
 .debug_frame   0x00001e08      0x190 source/ps2keyboard.X.a(ps2keyboard.o)
 .debug_frame   0x00001f98      0x6d0 source/libsdfsio.a(FSIO.o)
 .debug_frame   0x00002668      0x1a0 source/libsdfsio.a(SD-SPI.o)
 .debug_frame   0x00002808       0x28 /opt/microchip/xc32/v1.32/bin/bin/../../lib/gcc/pic32mx/4.5.2/../../../../pic32mx/lib/size/libmchp_peripheral_32MX150F128B.a(soft_reset_lib.o)
 .debug_frame   0x00002830       0x30 /opt/microchip/xc32/v1.32/bin/bin/../../lib/gcc/pic32mx/4.5.2/../../../../pic32mx/lib/size/libmchp_peripheral_32MX150F128B.a(osc_config_lib.o)
 .debug_frame   0x00002860       0x20 /opt/microchip/xc32/v1.32/bin/bin/../../lib/gcc/pic32mx/4.5.2/../../../../pic32mx/lib/size/libmchp_peripheral_32MX150F128B.a(int_disable_interrupts_lib.o)
 .debug_frame   0x00002880       0x20 /opt/microchip/xc32/v1.32/bin/bin/../../lib/gcc/pic32mx/4.5.2/../../../../pic32mx/lib/size/libmchp_peripheral_32MX150F128B.a(int_restore_interrupts_lib.o)
 .debug_frame   0x000028a0       0x28 /opt/microchip/xc32/v1.32/bin/bin/../../lib/gcc/pic32mx/4.5.2/../../../../pic32mx/lib/size/libmchp_peripheral_32MX150F128B.a(int_enable_mv_int_lib.o)
 .debug_frame   0x000028c8       0x20 /opt/microchip/xc32/v1.32/bin/bin/../../lib/gcc/pic32mx/4.5.2/../../../../pic32mx/lib/size/libmchp_peripheral_32MX150F128B.a(spi_getc_spi2_lib_legacy.o)
 .debug_frame   0x000028e8       0x20 /opt/microchip/xc32/v1.32/bin/bin/../../lib/gcc/pic32mx/4.5.2/../../../../pic32mx/lib/size/libmchp_peripheral_32MX150F128B.a(spi_open_spi2_lib_legacy.o)
 .debug_frame   0x00002908       0x28 /opt/microchip/xc32/v1.32/bin/bin/../../lib/gcc/pic32mx/4.5.2/../../../../pic32mx/lib/size/libmchp_peripheral_32MX150F128B.a(nvm_write_word_lib.o)
 .debug_frame   0x00002930       0x20 /opt/microchip/xc32/v1.32/bin/bin/../../lib/gcc/pic32mx/4.5.2/../../../../pic32mx/lib/size/libmchp_peripheral_32MX150F128B.a(int_enable_interrupts_lib.o)
 .debug_frame   0x00002950       0x28 /opt/microchip/xc32/v1.32/bin/bin/../../lib/gcc/pic32mx/4.5.2/../../../../pic32mx/lib/size/libmchp_peripheral_32MX150F128B.a(nvm_operation_lib.o)
 .debug_frame   0x00002978       0x28 /opt/microchip/xc32/v1.32/bin/bin/../../lib/gcc/pic32mx/4.5.2/../../../../pic32mx/lib/size/libm.a(w_acosf.o)
 .debug_frame   0x000029a0       0x28 /opt/microchip/xc32/v1.32/bin/bin/../../lib/gcc/pic32mx/4.5.2/../../../../pic32mx/lib/size/libm.a(w_asinf.o)
 .debug_frame   0x000029c8       0x3c /opt/microchip/xc32/v1.32/bin/bin/../../lib/gcc/pic32mx/4.5.2/../../../../pic32mx/lib/size/libm.a(w_atan2f.o)
 .debug_frame   0x00002a04       0x28 /opt/microchip/xc32/v1.32/bin/bin/../../lib/gcc/pic32mx/4.5.2/../../../../pic32mx/lib/size/libm.a(w_coshf.o)
 .debug_frame   0x00002a2c       0x28 /opt/microchip/xc32/v1.32/bin/bin/../../lib/gcc/pic32mx/4.5.2/../../../../pic32mx/lib/size/libm.a(w_expf.o)
 .debug_frame   0x00002a54       0x28 /opt/microchip/xc32/v1.32/bin/bin/../../lib/gcc/pic32mx/4.5.2/../../../../pic32mx/lib/size/libm.a(w_log10f.o)
 .debug_frame   0x00002a7c       0x28 /opt/microchip/xc32/v1.32/bin/bin/../../lib/gcc/pic32mx/4.5.2/../../../../pic32mx/lib/size/libm.a(w_logf.o)
 .debug_frame   0x00002aa4       0x30 /opt/microchip/xc32/v1.32/bin/bin/../../lib/gcc/pic32mx/4.5.2/../../../../pic32mx/lib/size/libm.a(w_powf.o)
 .debug_frame   0x00002ad4       0x28 /opt/microchip/xc32/v1.32/bin/bin/../../lib/gcc/pic32mx/4.5.2/../../../../pic32mx/lib/size/libm.a(w_sinhf.o)
 .debug_frame   0x00002afc       0x28 /opt/microchip/xc32/v1.32/bin/bin/../../lib/gcc/pic32mx/4.5.2/../../../../pic32mx/lib/size/libm.a(w_sqrtf.o)
 .debug_frame   0x00002b24      0x13c /opt/microchip/xc32/v1.32/bin/bin/../../lib/gcc/pic32mx/4.5.2/../../../../pic32mx/lib/size/libm.a(support.o)
 .debug_frame   0x00002c60       0x28 /opt/microchip/xc32/v1.32/bin/bin/../../lib/gcc/pic32mx/4.5.2/../../../../pic32mx/lib/size/libpic32.a(default-bootstrap-exception-handler.o)
 .debug_frame   0x00002c88       0x20 /opt/microchip/xc32/v1.32/bin/bin/../../lib/gcc/pic32mx/4.5.2/../../../../pic32mx/lib/size/libpic32.a(default-on-reset.o)
 .debug_frame   0x00002ca8       0x20 /opt/microchip/xc32/v1.32/bin/bin/../../lib/gcc/pic32mx/4.5.2/../../../../pic32mx/lib/size/libpic32.a(default-on-bootstrap.o)
 .debug_frame   0x00002cc8       0xa0 /opt/microchip/xc32/v1.32/bin/bin/../../lib/gcc/pic32mx/4.5.2/../../../../pic32mx/lib/size/libpic32.a(isinf.o)
 .debug_frame   0x00002d68       0x20 /opt/microchip/xc32/v1.32/bin/bin/../../lib/gcc/pic32mx/4.5.2/../../../../pic32mx/lib/size/libe.a(_unorddf2.o)
 .debug_frame   0x00002d88      0x120 /opt/microchip/xc32/v1.32/bin/bin/../../lib/gcc/pic32mx/4.5.2/../../../../pic32mx/lib/size/libc.a(ctypef.o)
 .debug_frame   0x00002ea8       0x20 /opt/microchip/xc32/v1.32/bin/bin/../../lib/gcc/pic32mx/4.5.2/../../../../pic32mx/lib/size/libc.a(strncpy.o)
 .debug_frame   0x00002ec8       0x40 /opt/microchip/xc32/v1.32/bin/bin/../../lib/gcc/pic32mx/4.5.2/../../../../pic32mx/lib/size/libc.a(strtof.o)
 .debug_frame   0x00002f08       0x28 /opt/microchip/xc32/v1.32/bin/bin/../../lib/gcc/pic32mx/4.5.2/../../../../pic32mx/lib/size/libc.a(snprintf.o)
 .debug_frame   0x00002f30       0x28 /opt/microchip/xc32/v1.32/bin/bin/../../lib/gcc/pic32mx/4.5.2/../../../../pic32mx/lib/size/libc.a(vsnprintf.o)
 .debug_frame   0x00002f58       0x74 /opt/microchip/xc32/v1.32/bin/bin/../../lib/gcc/pic32mx/4.5.2/../../../../pic32mx/lib/size/libc.a(doprnt.o)
 .debug_frame   0x00002fcc       0x2c /opt/microchip/xc32/v1.32/bin/bin/../../lib/gcc/pic32mx/4.5.2/../../../../pic32mx/lib/size/libc.a(_fputc_simple.o)
 .debug_frame   0x00002ff8       0x28 /opt/microchip/xc32/v1.32/bin/bin/../../lib/gcc/pic32mx/4.5.2/../../../../pic32mx/lib/size/libc.a(_flsbuf_simple.o)
 .debug_frame   0x00003020       0x2c /opt/microchip/xc32/v1.32/bin/bin/../../lib/gcc/pic32mx/4.5.2/../../../../pic32mx/lib/size/libpic32.a(write.o)
 .debug_frame   0x0000304c       0x20 /opt/microchip/xc32/v1.32/bin/bin/../../lib/gcc/pic32mx/4.5.2/../../../../pic32mx/lib/size/libpic32.a(_mon_putc.o)
 .debug_frame   0x0000306c       0x38 /opt/microchip/xc32/v1.32/bin/bin/../../lib/gcc/pic32mx/4.5.2/../../../../pic32mx/lib/size/libm.a(__strtof.o)
 .debug_frame   0x000030a4       0x20 /opt/microchip/xc32/v1.32/bin/bin/../../lib/gcc/pic32mx/4.5.2/../../../../pic32mx/lib/size/libe.a(_floatdisf.o)
 .debug_frame   0x000030c4       0x20 /opt/microchip/xc32/v1.32/bin/bin/../../lib/gcc/pic32mx/4.5.2/../../../../pic32mx/lib/size/libe.a(_ldexpf.o)
 .debug_frame   0x000030e4       0x20 /opt/microchip/xc32/v1.32/bin/bin/../../lib/gcc/pic32mx/4.5.2/size/libgcc.a(_lshrdi3.o)
 .debug_frame   0x00003104       0x2c /opt/microchip/xc32/v1.32/bin/bin/../../lib/gcc/pic32mx/4.5.2/size/libgcc.a(_floatundisf.o)
 .debug_frame   0x00003130       0x20 /opt/microchip/xc32/v1.32/bin/bin/../../lib/gcc/pic32mx/4.5.2/size/libgcc.a(_udivdi3.o)
 .debug_frame   0x00003150       0x20 /opt/microchip/xc32/v1.32/bin/bin/../../lib/gcc/pic32mx/4.5.2/size/libgcc.a(_umoddi3.o)
 .debug_frame   0x00003170       0x28 /opt/microchip/xc32/v1.32/bin/bin/../../lib/gcc/pic32mx/4.5.2/size/libgcc.a(floatunsisf.o)

.debug_str      0x00000000     0x131a
 *(.debug_str)
 .debug_str     0x00000000       0x4d build/pickit3/production/_ext/1248472724/compiler.o
 .debug_str     0x0000004d        0x0 build/pickit3/production/_ext/1248472724/debug.o
 .debug_str     0x0000004d        0x0 build/pickit3/production/_ext/1248472724/document.o
 .debug_str     0x0000004d      0x179 build/pickit3/production/_ext/1248472724/editor.o
 .debug_str     0x000001c6       0x1e build/pickit3/production/_ext/1248472724/error.o
 .debug_str     0x000001e4       0x13 build/pickit3/production/_ext/1248472724/exception.o
 .debug_str     0x000001f7       0x27 build/pickit3/production/_ext/1248472724/file.o
 .debug_str     0x0000021e       0x6b build/pickit3/production/_ext/1248472724/float.o
 .debug_str     0x00000289       0x48 build/pickit3/production/_ext/1248472724/function.o
 .debug_str     0x000002d1        0x0 build/pickit3/production/_ext/1248472724/globalvars.o
 .debug_str     0x000002d1       0x42 build/pickit3/production/_ext/1248472724/keyinput.o
 .debug_str     0x00000313       0xe1 build/pickit3/production/_ext/1248472724/library.o
 .debug_str     0x000003f4       0x39 build/pickit3/production/_ext/1248472724/linker.o
 .debug_str     0x0000042d       0x4a build/pickit3/production/_ext/1248472724/main.o
 .debug_str     0x00000477       0x40 build/pickit3/production/_ext/1248472724/memory.o
 .debug_str     0x000004b7       0x4e build/pickit3/production/_ext/1248472724/music.o
 .debug_str     0x00000505       0x41 build/pickit3/production/_ext/1248472724/operator.o
 .debug_str     0x00000546       0x8d build/pickit3/production/_ext/1248472724/run.o
 .debug_str     0x000005d3       0x9f build/pickit3/production/_ext/1248472724/statement.o
 .debug_str     0x00000672       0x67 build/pickit3/production/_ext/1248472724/string.o
 .debug_str     0x000006d9       0x85 build/pickit3/production/_ext/1248472724/value.o
 .debug_str     0x0000075e       0x15 build/pickit3/production/_ext/618058229/fontx2.o
 .debug_str     0x00000773      0x183 source/lib_videoout_machikania.X.a(videoout.o)
 .debug_str     0x000008f6       0x1f source/lib_videoout_machikania.X.a(textvideolib.o)
 .debug_str     0x00000915        0x0 source/lib_videoout_machikania.X.a(graphvideolib.o)
 .debug_str     0x00000915      0x2f0 source/ps2keyboard.X.a(ps2keyboard.o)
 .debug_str     0x00000c05      0x501 source/libsdfsio.a(FSIO.o)
 .debug_str     0x00001106      0x20b source/libsdfsio.a(SD-SPI.o)
 .debug_str     0x00001311        0x0 /opt/microchip/xc32/v1.32/bin/bin/../../lib/gcc/pic32mx/4.5.2/../../../../pic32mx/lib/size/libmchp_peripheral_32MX150F128B.a(soft_reset_lib.o)
 .debug_str     0x00001311        0x0 /opt/microchip/xc32/v1.32/bin/bin/../../lib/gcc/pic32mx/4.5.2/../../../../pic32mx/lib/size/libmchp_peripheral_32MX150F128B.a(osc_config_lib.o)
 .debug_str     0x00001311        0x0 /opt/microchip/xc32/v1.32/bin/bin/../../lib/gcc/pic32mx/4.5.2/../../../../pic32mx/lib/size/libmchp_peripheral_32MX150F128B.a(int_disable_interrupts_lib.o)
 .debug_str     0x00001311        0x0 /opt/microchip/xc32/v1.32/bin/bin/../../lib/gcc/pic32mx/4.5.2/../../../../pic32mx/lib/size/libmchp_peripheral_32MX150F128B.a(int_restore_interrupts_lib.o)
 .debug_str     0x00001311        0x0 /opt/microchip/xc32/v1.32/bin/bin/../../lib/gcc/pic32mx/4.5.2/../../../../pic32mx/lib/size/libmchp_peripheral_32MX150F128B.a(int_enable_mv_int_lib.o)
 .debug_str     0x00001311        0x0 /opt/microchip/xc32/v1.32/bin/bin/../../lib/gcc/pic32mx/4.5.2/../../../../pic32mx/lib/size/libmchp_peripheral_32MX150F128B.a(spi_getc_spi2_lib_legacy.o)
 .debug_str     0x00001311        0x0 /opt/microchip/xc32/v1.32/bin/bin/../../lib/gcc/pic32mx/4.5.2/../../../../pic32mx/lib/size/libmchp_peripheral_32MX150F128B.a(spi_open_spi2_lib_legacy.o)
 .debug_str     0x00001311        0x0 /opt/microchip/xc32/v1.32/bin/bin/../../lib/gcc/pic32mx/4.5.2/../../../../pic32mx/lib/size/libmchp_peripheral_32MX150F128B.a(spi_brg_tbl_lib_legacy.o)
 .debug_str     0x00001311        0x0 /opt/microchip/xc32/v1.32/bin/bin/../../lib/gcc/pic32mx/4.5.2/../../../../pic32mx/lib/size/libmchp_peripheral_32MX150F128B.a(nvm_write_word_lib.o)
 .debug_str     0x00001311        0x0 /opt/microchip/xc32/v1.32/bin/bin/../../lib/gcc/pic32mx/4.5.2/../../../../pic32mx/lib/size/libmchp_peripheral_32MX150F128B.a(int_enable_interrupts_lib.o)
 .debug_str     0x00001311        0x0 /opt/microchip/xc32/v1.32/bin/bin/../../lib/gcc/pic32mx/4.5.2/../../../../pic32mx/lib/size/libmchp_peripheral_32MX150F128B.a(nvm_operation_lib.o)
 .debug_str     0x00001311        0x0 /opt/microchip/xc32/v1.32/bin/bin/../../lib/gcc/pic32mx/4.5.2/../../../../pic32mx/lib/size/libm.a(w_acosf.o)
 .debug_str     0x00001311        0x0 /opt/microchip/xc32/v1.32/bin/bin/../../lib/gcc/pic32mx/4.5.2/../../../../pic32mx/lib/size/libm.a(w_asinf.o)
 .debug_str     0x00001311        0x0 /opt/microchip/xc32/v1.32/bin/bin/../../lib/gcc/pic32mx/4.5.2/../../../../pic32mx/lib/size/libm.a(w_atan2f.o)
 .debug_str     0x00001311        0x0 /opt/microchip/xc32/v1.32/bin/bin/../../lib/gcc/pic32mx/4.5.2/../../../../pic32mx/lib/size/libm.a(w_coshf.o)
 .debug_str     0x00001311        0x0 /opt/microchip/xc32/v1.32/bin/bin/../../lib/gcc/pic32mx/4.5.2/../../../../pic32mx/lib/size/libm.a(w_expf.o)
 .debug_str     0x00001311        0x0 /opt/microchip/xc32/v1.32/bin/bin/../../lib/gcc/pic32mx/4.5.2/../../../../pic32mx/lib/size/libm.a(w_log10f.o)
 .debug_str     0x00001311        0x0 /opt/microchip/xc32/v1.32/bin/bin/../../lib/gcc/pic32mx/4.5.2/../../../../pic32mx/lib/size/libm.a(w_logf.o)
 .debug_str     0x00001311        0x0 /opt/microchip/xc32/v1.32/bin/bin/../../lib/gcc/pic32mx/4.5.2/../../../../pic32mx/lib/size/libm.a(w_powf.o)
 .debug_str     0x00001311        0x0 /opt/microchip/xc32/v1.32/bin/bin/../../lib/gcc/pic32mx/4.5.2/../../../../pic32mx/lib/size/libm.a(w_sinhf.o)
 .debug_str     0x00001311        0x0 /opt/microchip/xc32/v1.32/bin/bin/../../lib/gcc/pic32mx/4.5.2/../../../../pic32mx/lib/size/libm.a(w_sqrtf.o)
 .debug_str     0x00001311        0x0 /opt/microchip/xc32/v1.32/bin/bin/../../lib/gcc/pic32mx/4.5.2/../../../../pic32mx/lib/size/libm.a(support.o)
 .debug_str     0x00001311        0x0 /opt/microchip/xc32/v1.32/bin/bin/../../lib/gcc/pic32mx/4.5.2/../../../../pic32mx/lib/size/libm.a(s_lib_ver.o)
 .debug_str     0x00001311        0x0 /opt/microchip/xc32/v1.32/bin/bin/../../lib/gcc/pic32mx/4.5.2/../../../../pic32mx/lib/size/libpic32.a(default-bootstrap-exception-handler.o)
 .debug_str     0x00001311        0x0 /opt/microchip/xc32/v1.32/bin/bin/../../lib/gcc/pic32mx/4.5.2/../../../../pic32mx/lib/size/libpic32.a(default-on-reset.o)
 .debug_str     0x00001311        0x0 /opt/microchip/xc32/v1.32/bin/bin/../../lib/gcc/pic32mx/4.5.2/../../../../pic32mx/lib/size/libpic32.a(default-on-bootstrap.o)
 .debug_str     0x00001311        0x0 /opt/microchip/xc32/v1.32/bin/bin/../../lib/gcc/pic32mx/4.5.2/../../../../pic32mx/lib/size/libpic32.a(errno.o)
 .debug_str     0x00001311        0x0 /opt/microchip/xc32/v1.32/bin/bin/../../lib/gcc/pic32mx/4.5.2/../../../../pic32mx/lib/size/libpic32.a(isinf.o)
 .debug_str     0x00001311        0x0 /opt/microchip/xc32/v1.32/bin/bin/../../lib/gcc/pic32mx/4.5.2/../../../../pic32mx/lib/size/libe.a(_unorddf2.o)
 .debug_str     0x00001311        0x0 /opt/microchip/xc32/v1.32/bin/bin/../../lib/gcc/pic32mx/4.5.2/../../../../pic32mx/lib/size/libc.a(ctypef.o)
 .debug_str     0x00001311        0x0 /opt/microchip/xc32/v1.32/bin/bin/../../lib/gcc/pic32mx/4.5.2/../../../../pic32mx/lib/size/libc.a(strncpy.o)
 .debug_str     0x00001311        0x9 /opt/microchip/xc32/v1.32/bin/bin/../../lib/gcc/pic32mx/4.5.2/../../../../pic32mx/lib/size/libc.a(strtof.o)
 .debug_str     0x0000131a        0x0 /opt/microchip/xc32/v1.32/bin/bin/../../lib/gcc/pic32mx/4.5.2/../../../../pic32mx/lib/size/libc.a(snprintf.o)
 .debug_str     0x0000131a        0x0 /opt/microchip/xc32/v1.32/bin/bin/../../lib/gcc/pic32mx/4.5.2/../../../../pic32mx/lib/size/libc.a(vsnprintf.o)
 .debug_str     0x0000131a        0x0 /opt/microchip/xc32/v1.32/bin/bin/../../lib/gcc/pic32mx/4.5.2/../../../../pic32mx/lib/size/libc.a(ctype.o)
 .debug_str     0x0000131a        0x0 /opt/microchip/xc32/v1.32/bin/bin/../../lib/gcc/pic32mx/4.5.2/../../../../pic32mx/lib/size/libc.a(doprnt.o)
 .debug_str     0x0000131a        0x0 /opt/microchip/xc32/v1.32/bin/bin/../../lib/gcc/pic32mx/4.5.2/../../../../pic32mx/lib/size/libc.a(_fputc_simple.o)
 .debug_str     0x0000131a        0x0 /opt/microchip/xc32/v1.32/bin/bin/../../lib/gcc/pic32mx/4.5.2/../../../../pic32mx/lib/size/libc.a(powersf.o)
 .debug_str     0x0000131a        0x0 /opt/microchip/xc32/v1.32/bin/bin/../../lib/gcc/pic32mx/4.5.2/../../../../pic32mx/lib/size/libc.a(_iob.o)
 .debug_str     0x0000131a        0x0 /opt/microchip/xc32/v1.32/bin/bin/../../lib/gcc/pic32mx/4.5.2/../../../../pic32mx/lib/size/libc.a(_flsbuf_simple.o)
 .debug_str     0x0000131a        0x0 /opt/microchip/xc32/v1.32/bin/bin/../../lib/gcc/pic32mx/4.5.2/../../../../pic32mx/lib/size/libpic32.a(write.o)
 .debug_str     0x0000131a        0x0 /opt/microchip/xc32/v1.32/bin/bin/../../lib/gcc/pic32mx/4.5.2/../../../../pic32mx/lib/size/libpic32.a(_mon_putc.o)
 .debug_str     0x0000131a        0x0 /opt/microchip/xc32/v1.32/bin/bin/../../lib/gcc/pic32mx/4.5.2/../../../../pic32mx/lib/size/libpic32.a(xc32_uart.o)
 .debug_str     0x0000131a        0x0 /opt/microchip/xc32/v1.32/bin/bin/../../lib/gcc/pic32mx/4.5.2/../../../../pic32mx/lib/size/libm.a(__strtof.o)
 .debug_str     0x0000131a        0x0 /opt/microchip/xc32/v1.32/bin/bin/../../lib/gcc/pic32mx/4.5.2/../../../../pic32mx/lib/size/libe.a(_floatdisf.o)
 .debug_str     0x0000131a        0x0 /opt/microchip/xc32/v1.32/bin/bin/../../lib/gcc/pic32mx/4.5.2/../../../../pic32mx/lib/size/libe.a(_ldexpf.o)
 .debug_str     0x0000131a        0x0 /opt/microchip/xc32/v1.32/bin/bin/../../lib/gcc/pic32mx/4.5.2/size/libgcc.a(_lshrdi3.o)
 .debug_str     0x0000131a        0x0 /opt/microchip/xc32/v1.32/bin/bin/../../lib/gcc/pic32mx/4.5.2/size/libgcc.a(_floatundisf.o)
 .debug_str     0x0000131a        0x0 /opt/microchip/xc32/v1.32/bin/bin/../../lib/gcc/pic32mx/4.5.2/size/libgcc.a(_udivdi3.o)
 .debug_str     0x0000131a        0x0 /opt/microchip/xc32/v1.32/bin/bin/../../lib/gcc/pic32mx/4.5.2/size/libgcc.a(_umoddi3.o)
 .debug_str     0x0000131a        0x0 /opt/microchip/xc32/v1.32/bin/bin/../../lib/gcc/pic32mx/4.5.2/size/libgcc.a(floatunsisf.o)

.debug_loc      0x00000000     0xc304
 *(.debug_loc)
 .debug_loc     0x00000000       0xf8 build/pickit3/production/_ext/1248472724/compiler.o
 .debug_loc     0x000000f8     0x2329 build/pickit3/production/_ext/1248472724/editor.o
 .debug_loc     0x00002421       0xa1 build/pickit3/production/_ext/1248472724/error.o
 .debug_loc     0x000024c2       0x80 build/pickit3/production/_ext/1248472724/exception.o
 .debug_loc     0x00002542       0xac build/pickit3/production/_ext/1248472724/file.o
 .debug_loc     0x000025ee      0x1f4 build/pickit3/production/_ext/1248472724/float.o
 .debug_loc     0x000027e2      0x53f build/pickit3/production/_ext/1248472724/function.o
 .debug_loc     0x00002d21      0x25a build/pickit3/production/_ext/1248472724/keyinput.o
 .debug_loc     0x00002f7b     0x1734 build/pickit3/production/_ext/1248472724/library.o
 .debug_loc     0x000046af      0x49a build/pickit3/production/_ext/1248472724/linker.o
 .debug_loc     0x00004b49      0x1f1 build/pickit3/production/_ext/1248472724/main.o
 .debug_loc     0x00004d3a      0x20c build/pickit3/production/_ext/1248472724/memory.o
 .debug_loc     0x00004f46      0x373 build/pickit3/production/_ext/1248472724/music.o
 .debug_loc     0x000052b9      0x47d build/pickit3/production/_ext/1248472724/operator.o
 .debug_loc     0x00005736       0xf6 build/pickit3/production/_ext/1248472724/run.o
 .debug_loc     0x0000582c      0xc94 build/pickit3/production/_ext/1248472724/statement.o
 .debug_loc     0x000064c0      0x20b build/pickit3/production/_ext/1248472724/string.o
 .debug_loc     0x000066cb      0x337 build/pickit3/production/_ext/1248472724/value.o
 .debug_loc     0x00006a02      0x142 build/pickit3/production/_ext/618058229/fontx2.o
 .debug_loc     0x00006b44      0x1e0 source/lib_videoout_machikania.X.a(videoout.o)
 .debug_loc     0x00006d24      0x263 source/lib_videoout_machikania.X.a(textvideolib.o)
 .debug_loc     0x00006f87      0xbd5 source/lib_videoout_machikania.X.a(graphvideolib.o)
 .debug_loc     0x00007b5c      0x2e6 source/ps2keyboard.X.a(ps2keyboard.o)
 .debug_loc     0x00007e42     0x2ce0 source/libsdfsio.a(FSIO.o)
 .debug_loc     0x0000ab22      0x30a source/libsdfsio.a(SD-SPI.o)
 .debug_loc     0x0000ae2c       0x4f /opt/microchip/xc32/v1.32/bin/bin/../../lib/gcc/pic32mx/4.5.2/size/libgcc.a(_lshrdi3.o)
 .debug_loc     0x0000ae7b       0xc9 /opt/microchip/xc32/v1.32/bin/bin/../../lib/gcc/pic32mx/4.5.2/size/libgcc.a(_floatundisf.o)
 .debug_loc     0x0000af44      0x9c3 /opt/microchip/xc32/v1.32/bin/bin/../../lib/gcc/pic32mx/4.5.2/size/libgcc.a(_udivdi3.o)
 .debug_loc     0x0000b907      0x995 /opt/microchip/xc32/v1.32/bin/bin/../../lib/gcc/pic32mx/4.5.2/size/libgcc.a(_umoddi3.o)
 .debug_loc     0x0000c29c       0x68 /opt/microchip/xc32/v1.32/bin/bin/../../lib/gcc/pic32mx/4.5.2/size/libgcc.a(floatunsisf.o)

.debug_macinfo
 *(.debug_macinfo)

.debug_weaknames
 *(.debug_weaknames)

.debug_funcnames
 *(.debug_funcnames)

.debug_typenames
 *(.debug_typenames)

.debug_varnames
 *(.debug_varnames)

.debug_pubtypes
                0x00000000      0xa52
 *(.debug_pubtypes)
 .debug_pubtypes
                0x00000000       0x12 build/pickit3/production/_ext/1248472724/compiler.o
 .debug_pubtypes
                0x00000012       0x12 build/pickit3/production/_ext/1248472724/document.o
 .debug_pubtypes
                0x00000024       0x56 build/pickit3/production/_ext/1248472724/editor.o
 .debug_pubtypes
                0x0000007a       0x12 build/pickit3/production/_ext/1248472724/error.o
 .debug_pubtypes
                0x0000008c       0x23 build/pickit3/production/_ext/1248472724/exception.o
 .debug_pubtypes
                0x000000af       0x34 build/pickit3/production/_ext/1248472724/file.o
 .debug_pubtypes
                0x000000e3       0x35 build/pickit3/production/_ext/1248472724/float.o
 .debug_pubtypes
                0x00000118       0x29 build/pickit3/production/_ext/1248472724/function.o
 .debug_pubtypes
                0x00000141       0x1f build/pickit3/production/_ext/1248472724/globalvars.o
 .debug_pubtypes
                0x00000160       0x36 build/pickit3/production/_ext/1248472724/library.o
 .debug_pubtypes
                0x00000196       0x1b build/pickit3/production/_ext/1248472724/linker.o
 .debug_pubtypes
                0x000001b1       0x34 build/pickit3/production/_ext/1248472724/main.o
 .debug_pubtypes
                0x000001e5       0x12 build/pickit3/production/_ext/1248472724/memory.o
 .debug_pubtypes
                0x000001f7       0x45 build/pickit3/production/_ext/1248472724/music.o
 .debug_pubtypes
                0x0000023c       0x28 build/pickit3/production/_ext/1248472724/operator.o
 .debug_pubtypes
                0x00000264       0x12 build/pickit3/production/_ext/1248472724/run.o
 .debug_pubtypes
                0x00000276       0x36 build/pickit3/production/_ext/1248472724/statement.o
 .debug_pubtypes
                0x000002ac       0x28 build/pickit3/production/_ext/1248472724/string.o
 .debug_pubtypes
                0x000002d4       0x2c build/pickit3/production/_ext/1248472724/value.o
 .debug_pubtypes
                0x00000300       0x12 build/pickit3/production/_ext/618058229/fontx2.o
 .debug_pubtypes
                0x00000312      0x112 source/lib_videoout_machikania.X.a(videoout.o)
 .debug_pubtypes
                0x00000424       0xcf source/ps2keyboard.X.a(ps2keyboard.o)
 .debug_pubtypes
                0x000004f3      0x205 source/libsdfsio.a(FSIO.o)
 .debug_pubtypes
                0x000006f8      0x1d2 source/libsdfsio.a(SD-SPI.o)
 .debug_pubtypes
                0x000008ca       0x62 /opt/microchip/xc32/v1.32/bin/bin/../../lib/gcc/pic32mx/4.5.2/size/libgcc.a(_lshrdi3.o)
 .debug_pubtypes
                0x0000092c       0x40 /opt/microchip/xc32/v1.32/bin/bin/../../lib/gcc/pic32mx/4.5.2/size/libgcc.a(_floatundisf.o)
 .debug_pubtypes
                0x0000096c       0x59 /opt/microchip/xc32/v1.32/bin/bin/../../lib/gcc/pic32mx/4.5.2/size/libgcc.a(_udivdi3.o)
 .debug_pubtypes
                0x000009c5       0x59 /opt/microchip/xc32/v1.32/bin/bin/../../lib/gcc/pic32mx/4.5.2/size/libgcc.a(_umoddi3.o)
 .debug_pubtypes
                0x00000a1e       0x34 /opt/microchip/xc32/v1.32/bin/bin/../../lib/gcc/pic32mx/4.5.2/size/libgcc.a(floatunsisf.o)

.debug_ranges   0x00000000       0xd0
 *(.debug_ranges)
 .debug_ranges  0x00000000       0x30 build/pickit3/production/_ext/618058229/crt0.o
 .debug_ranges  0x00000030       0x10 /opt/microchip/xc32/v1.32/bin/bin/../../lib/gcc/pic32mx/4.5.2/../../../../pic32mx/lib/size/libmchp_peripheral_32MX150F128B.a(soft_reset_lib.o)
 .debug_ranges  0x00000040       0x10 /opt/microchip/xc32/v1.32/bin/bin/../../lib/gcc/pic32mx/4.5.2/../../../../pic32mx/lib/size/libmchp_peripheral_32MX150F128B.a(osc_config_lib.o)
 .debug_ranges  0x00000050       0x10 /opt/microchip/xc32/v1.32/bin/bin/../../lib/gcc/pic32mx/4.5.2/../../../../pic32mx/lib/size/libmchp_peripheral_32MX150F128B.a(int_disable_interrupts_lib.o)
 .debug_ranges  0x00000060       0x10 /opt/microchip/xc32/v1.32/bin/bin/../../lib/gcc/pic32mx/4.5.2/../../../../pic32mx/lib/size/libmchp_peripheral_32MX150F128B.a(int_restore_interrupts_lib.o)
 .debug_ranges  0x00000070       0x10 /opt/microchip/xc32/v1.32/bin/bin/../../lib/gcc/pic32mx/4.5.2/../../../../pic32mx/lib/size/libmchp_peripheral_32MX150F128B.a(int_enable_mv_int_lib.o)
 .debug_ranges  0x00000080       0x10 /opt/microchip/xc32/v1.32/bin/bin/../../lib/gcc/pic32mx/4.5.2/../../../../pic32mx/lib/size/libmchp_peripheral_32MX150F128B.a(spi_getc_spi2_lib_legacy.o)
 .debug_ranges  0x00000090       0x10 /opt/microchip/xc32/v1.32/bin/bin/../../lib/gcc/pic32mx/4.5.2/../../../../pic32mx/lib/size/libmchp_peripheral_32MX150F128B.a(spi_open_spi2_lib_legacy.o)
 .debug_ranges  0x000000a0       0x10 /opt/microchip/xc32/v1.32/bin/bin/../../lib/gcc/pic32mx/4.5.2/../../../../pic32mx/lib/size/libmchp_peripheral_32MX150F128B.a(nvm_write_word_lib.o)
 .debug_ranges  0x000000b0       0x10 /opt/microchip/xc32/v1.32/bin/bin/../../lib/gcc/pic32mx/4.5.2/../../../../pic32mx/lib/size/libmchp_peripheral_32MX150F128B.a(int_enable_interrupts_lib.o)
 .debug_ranges  0x000000c0       0x10 /opt/microchip/xc32/v1.32/bin/bin/../../lib/gcc/pic32mx/4.5.2/../../../../pic32mx/lib/size/libmchp_peripheral_32MX150F128B.a(nvm_operation_lib.o)

.gnu.attributes
                0x00000000       0x10
 *(.gnu.attributes)
 .gnu.attributes
                0x00000000       0x10 build/pickit3/production/_ext/1248472724/compiler.o
 .gnu.attributes
                0x00000010       0x10 build/pickit3/production/_ext/1248472724/debug.o
 .gnu.attributes
                0x00000020       0x10 build/pickit3/production/_ext/1248472724/document.o
 .gnu.attributes
                0x00000030       0x10 build/pickit3/production/_ext/1248472724/editor.o
 .gnu.attributes
                0x00000040       0x10 build/pickit3/production/_ext/1248472724/error.o
 .gnu.attributes
                0x00000050       0x10 build/pickit3/production/_ext/1248472724/exception.o
 .gnu.attributes
                0x00000060       0x10 build/pickit3/production/_ext/1248472724/file.o
 .gnu.attributes
                0x00000070       0x10 build/pickit3/production/_ext/1248472724/float.o
 .gnu.attributes
                0x00000080       0x10 build/pickit3/production/_ext/1248472724/function.o
 .gnu.attributes
                0x00000090       0x10 build/pickit3/production/_ext/1248472724/globalvars.o
 .gnu.attributes
                0x000000a0       0x10 build/pickit3/production/_ext/1248472724/keyinput.o
 .gnu.attributes
                0x000000b0       0x10 build/pickit3/production/_ext/1248472724/library.o
 .gnu.attributes
                0x000000c0       0x10 build/pickit3/production/_ext/1248472724/linker.o
 .gnu.attributes
                0x000000d0       0x10 build/pickit3/production/_ext/1248472724/main.o
 .gnu.attributes
                0x000000e0       0x10 build/pickit3/production/_ext/1248472724/memory.o
 .gnu.attributes
                0x000000f0       0x10 build/pickit3/production/_ext/1248472724/music.o
 .gnu.attributes
                0x00000100       0x10 build/pickit3/production/_ext/1248472724/operator.o
 .gnu.attributes
                0x00000110       0x10 build/pickit3/production/_ext/1248472724/run.o
 .gnu.attributes
                0x00000120       0x10 build/pickit3/production/_ext/1248472724/statement.o
 .gnu.attributes
                0x00000130       0x10 build/pickit3/production/_ext/1248472724/string.o
 .gnu.attributes
                0x00000140       0x10 build/pickit3/production/_ext/1248472724/value.o
 .gnu.attributes
                0x00000150       0x10 build/pickit3/production/_ext/618058229/fontx2.o
 .gnu.attributes
                0x00000160       0x10 source/lib_videoout_machikania.X.a(videoout.o)
 .gnu.attributes
                0x00000170       0x10 source/lib_videoout_machikania.X.a(textvideolib.o)
 .gnu.attributes
                0x00000180       0x10 source/lib_videoout_machikania.X.a(graphvideolib.o)
 .gnu.attributes
                0x00000190       0x10 source/ps2keyboard.X.a(ps2keyboard.o)
 .gnu.attributes
                0x000001a0       0x10 source/libsdfsio.a(FSIO.o)
 .gnu.attributes
                0x000001b0       0x10 source/libsdfsio.a(SD-SPI.o)
 .gnu.attributes
                0x000001c0       0x10 /opt/microchip/xc32/v1.32/bin/bin/../../lib/gcc/pic32mx/4.5.2/../../../../pic32mx/lib/size/libmchp_peripheral_32MX150F128B.a(soft_reset_lib.o)
 .gnu.attributes
                0x000001d0       0x10 /opt/microchip/xc32/v1.32/bin/bin/../../lib/gcc/pic32mx/4.5.2/../../../../pic32mx/lib/size/libmchp_peripheral_32MX150F128B.a(osc_config_lib.o)
 .gnu.attributes
                0x000001e0       0x10 /opt/microchip/xc32/v1.32/bin/bin/../../lib/gcc/pic32mx/4.5.2/../../../../pic32mx/lib/size/libmchp_peripheral_32MX150F128B.a(int_disable_interrupts_lib.o)
 .gnu.attributes
                0x000001f0       0x10 /opt/microchip/xc32/v1.32/bin/bin/../../lib/gcc/pic32mx/4.5.2/../../../../pic32mx/lib/size/libmchp_peripheral_32MX150F128B.a(int_restore_interrupts_lib.o)
 .gnu.attributes
                0x00000200       0x10 /opt/microchip/xc32/v1.32/bin/bin/../../lib/gcc/pic32mx/4.5.2/../../../../pic32mx/lib/size/libmchp_peripheral_32MX150F128B.a(int_enable_mv_int_lib.o)
 .gnu.attributes
                0x00000210       0x10 /opt/microchip/xc32/v1.32/bin/bin/../../lib/gcc/pic32mx/4.5.2/../../../../pic32mx/lib/size/libmchp_peripheral_32MX150F128B.a(spi_getc_spi2_lib_legacy.o)
 .gnu.attributes
                0x00000220       0x10 /opt/microchip/xc32/v1.32/bin/bin/../../lib/gcc/pic32mx/4.5.2/../../../../pic32mx/lib/size/libmchp_peripheral_32MX150F128B.a(spi_open_spi2_lib_legacy.o)
 .gnu.attributes
                0x00000230       0x10 /opt/microchip/xc32/v1.32/bin/bin/../../lib/gcc/pic32mx/4.5.2/../../../../pic32mx/lib/size/libmchp_peripheral_32MX150F128B.a(spi_brg_tbl_lib_legacy.o)
 .gnu.attributes
                0x00000240       0x10 /opt/microchip/xc32/v1.32/bin/bin/../../lib/gcc/pic32mx/4.5.2/../../../../pic32mx/lib/size/libmchp_peripheral_32MX150F128B.a(nvm_write_word_lib.o)
 .gnu.attributes
                0x00000250       0x10 /opt/microchip/xc32/v1.32/bin/bin/../../lib/gcc/pic32mx/4.5.2/../../../../pic32mx/lib/size/libmchp_peripheral_32MX150F128B.a(int_enable_interrupts_lib.o)
 .gnu.attributes
                0x00000260       0x10 /opt/microchip/xc32/v1.32/bin/bin/../../lib/gcc/pic32mx/4.5.2/../../../../pic32mx/lib/size/libmchp_peripheral_32MX150F128B.a(nvm_operation_lib.o)
 .gnu.attributes
                0x00000270       0x10 /opt/microchip/xc32/v1.32/bin/bin/../../lib/gcc/pic32mx/4.5.2/../../../../pic32mx/lib/size/libm.a(w_acosf.o)
 .gnu.attributes
                0x00000280       0x10 /opt/microchip/xc32/v1.32/bin/bin/../../lib/gcc/pic32mx/4.5.2/../../../../pic32mx/lib/size/libm.a(w_asinf.o)
 .gnu.attributes
                0x00000290       0x10 /opt/microchip/xc32/v1.32/bin/bin/../../lib/gcc/pic32mx/4.5.2/../../../../pic32mx/lib/size/libm.a(w_atan2f.o)
 .gnu.attributes
                0x000002a0       0x10 /opt/microchip/xc32/v1.32/bin/bin/../../lib/gcc/pic32mx/4.5.2/../../../../pic32mx/lib/size/libm.a(w_coshf.o)
 .gnu.attributes
                0x000002b0       0x10 /opt/microchip/xc32/v1.32/bin/bin/../../lib/gcc/pic32mx/4.5.2/../../../../pic32mx/lib/size/libm.a(w_expf.o)
 .gnu.attributes
                0x000002c0       0x10 /opt/microchip/xc32/v1.32/bin/bin/../../lib/gcc/pic32mx/4.5.2/../../../../pic32mx/lib/size/libm.a(w_log10f.o)
 .gnu.attributes
                0x000002d0       0x10 /opt/microchip/xc32/v1.32/bin/bin/../../lib/gcc/pic32mx/4.5.2/../../../../pic32mx/lib/size/libm.a(w_logf.o)
 .gnu.attributes
                0x000002e0       0x10 /opt/microchip/xc32/v1.32/bin/bin/../../lib/gcc/pic32mx/4.5.2/../../../../pic32mx/lib/size/libm.a(w_powf.o)
 .gnu.attributes
                0x000002f0       0x10 /opt/microchip/xc32/v1.32/bin/bin/../../lib/gcc/pic32mx/4.5.2/../../../../pic32mx/lib/size/libm.a(w_sinhf.o)
 .gnu.attributes
                0x00000300       0x10 /opt/microchip/xc32/v1.32/bin/bin/../../lib/gcc/pic32mx/4.5.2/../../../../pic32mx/lib/size/libm.a(w_sqrtf.o)
 .gnu.attributes
                0x00000310       0x10 /opt/microchip/xc32/v1.32/bin/bin/../../lib/gcc/pic32mx/4.5.2/../../../../pic32mx/lib/size/libm.a(support.o)
 .gnu.attributes
                0x00000320       0x10 /opt/microchip/xc32/v1.32/bin/bin/../../lib/gcc/pic32mx/4.5.2/../../../../pic32mx/lib/size/libm.a(s_lib_ver.o)
 .gnu.attributes
                0x00000330       0x10 /opt/microchip/xc32/v1.32/bin/bin/../../lib/gcc/pic32mx/4.5.2/../../../../pic32mx/lib/size/libpic32.a(default-bootstrap-exception-handler.o)
 .gnu.attributes
                0x00000340       0x10 /opt/microchip/xc32/v1.32/bin/bin/../../lib/gcc/pic32mx/4.5.2/../../../../pic32mx/lib/size/libpic32.a(default-on-reset.o)
 .gnu.attributes
                0x00000350       0x10 /opt/microchip/xc32/v1.32/bin/bin/../../lib/gcc/pic32mx/4.5.2/../../../../pic32mx/lib/size/libpic32.a(default-on-bootstrap.o)
 .gnu.attributes
                0x00000360       0x10 /opt/microchip/xc32/v1.32/bin/bin/../../lib/gcc/pic32mx/4.5.2/../../../../pic32mx/lib/size/libpic32.a(errno.o)
 .gnu.attributes
                0x00000370       0x10 /opt/microchip/xc32/v1.32/bin/bin/../../lib/gcc/pic32mx/4.5.2/../../../../pic32mx/lib/size/libpic32.a(isinf.o)
 .gnu.attributes
                0x00000380       0x10 /opt/microchip/xc32/v1.32/bin/bin/../../lib/gcc/pic32mx/4.5.2/../../../../pic32mx/lib/size/libe.a(_unorddf2.o)
 .gnu.attributes
                0x00000390       0x10 /opt/microchip/xc32/v1.32/bin/bin/../../lib/gcc/pic32mx/4.5.2/../../../../pic32mx/lib/size/libc.a(ctypef.o)
 .gnu.attributes
                0x000003a0       0x10 /opt/microchip/xc32/v1.32/bin/bin/../../lib/gcc/pic32mx/4.5.2/../../../../pic32mx/lib/size/libc.a(strncpy.o)
 .gnu.attributes
                0x000003b0       0x10 /opt/microchip/xc32/v1.32/bin/bin/../../lib/gcc/pic32mx/4.5.2/../../../../pic32mx/lib/size/libc.a(strtof.o)
 .gnu.attributes
                0x000003c0       0x10 /opt/microchip/xc32/v1.32/bin/bin/../../lib/gcc/pic32mx/4.5.2/../../../../pic32mx/lib/size/libc.a(snprintf.o)
 .gnu.attributes
                0x000003d0       0x10 /opt/microchip/xc32/v1.32/bin/bin/../../lib/gcc/pic32mx/4.5.2/../../../../pic32mx/lib/size/libc.a(vsnprintf.o)
 .gnu.attributes
                0x000003e0       0x10 /opt/microchip/xc32/v1.32/bin/bin/../../lib/gcc/pic32mx/4.5.2/../../../../pic32mx/lib/size/libc.a(ctype.o)
 .gnu.attributes
                0x000003f0       0x10 /opt/microchip/xc32/v1.32/bin/bin/../../lib/gcc/pic32mx/4.5.2/../../../../pic32mx/lib/size/libc.a(doprnt.o)
 .gnu.attributes
                0x00000400       0x10 /opt/microchip/xc32/v1.32/bin/bin/../../lib/gcc/pic32mx/4.5.2/../../../../pic32mx/lib/size/libc.a(_fputc_simple.o)
 .gnu.attributes
                0x00000410       0x10 /opt/microchip/xc32/v1.32/bin/bin/../../lib/gcc/pic32mx/4.5.2/../../../../pic32mx/lib/size/libc.a(powersf.o)
 .gnu.attributes
                0x00000420       0x10 /opt/microchip/xc32/v1.32/bin/bin/../../lib/gcc/pic32mx/4.5.2/../../../../pic32mx/lib/size/libc.a(_iob.o)
 .gnu.attributes
                0x00000430       0x10 /opt/microchip/xc32/v1.32/bin/bin/../../lib/gcc/pic32mx/4.5.2/../../../../pic32mx/lib/size/libc.a(_flsbuf_simple.o)
 .gnu.attributes
                0x00000440       0x10 /opt/microchip/xc32/v1.32/bin/bin/../../lib/gcc/pic32mx/4.5.2/../../../../pic32mx/lib/size/libpic32.a(write.o)
 .gnu.attributes
                0x00000450       0x10 /opt/microchip/xc32/v1.32/bin/bin/../../lib/gcc/pic32mx/4.5.2/../../../../pic32mx/lib/size/libpic32.a(_mon_putc.o)
 .gnu.attributes
                0x00000460       0x10 /opt/microchip/xc32/v1.32/bin/bin/../../lib/gcc/pic32mx/4.5.2/../../../../pic32mx/lib/size/libpic32.a(xc32_uart.o)
 .gnu.attributes
                0x00000470       0x10 /opt/microchip/xc32/v1.32/bin/bin/../../lib/gcc/pic32mx/4.5.2/../../../../pic32mx/lib/size/libm.a(__strtof.o)
 .gnu.attributes
                0x00000480       0x10 /opt/microchip/xc32/v1.32/bin/bin/../../lib/gcc/pic32mx/4.5.2/../../../../pic32mx/lib/size/libe.a(_floatdisf.o)
 .gnu.attributes
                0x00000490       0x10 /opt/microchip/xc32/v1.32/bin/bin/../../lib/gcc/pic32mx/4.5.2/../../../../pic32mx/lib/size/libe.a(_ldexpf.o)
 .gnu.attributes
                0x000004a0       0x10 /opt/microchip/xc32/v1.32/bin/bin/../../lib/gcc/pic32mx/4.5.2/size/libgcc.a(_lshrdi3.o)
 .gnu.attributes
                0x000004b0       0x10 /opt/microchip/xc32/v1.32/bin/bin/../../lib/gcc/pic32mx/4.5.2/size/libgcc.a(_floatundisf.o)
 .gnu.attributes
                0x000004c0       0x10 /opt/microchip/xc32/v1.32/bin/bin/../../lib/gcc/pic32mx/4.5.2/size/libgcc.a(_udivdi3.o)
 .gnu.attributes
                0x000004d0       0x10 /opt/microchip/xc32/v1.32/bin/bin/../../lib/gcc/pic32mx/4.5.2/size/libgcc.a(_umoddi3.o)
 .gnu.attributes
                0x000004e0       0x10 /opt/microchip/xc32/v1.32/bin/bin/../../lib/gcc/pic32mx/4.5.2/size/libgcc.a(floatunsisf.o)
                0x00000064                _min_heap_size = 0x64
LOAD /opt/microchip/xc32/v1.32/bin/bin/../../lib/gcc/pic32mx/4.5.2/../../../../pic32mx/lib/size/libm.a
LOAD /opt/microchip/xc32/v1.32/bin/bin/../../lib/gcc/pic32mx/4.5.2/size/libgcc.a
START GROUP
LOAD /opt/microchip/xc32/v1.32/bin/bin/../../lib/gcc/pic32mx/4.5.2/../../../../pic32mx/lib/size/libpic32.a
LOAD /opt/microchip/xc32/v1.32/bin/bin/../../lib/gcc/pic32mx/4.5.2/../../../../pic32mx/lib/size/libdebug.a
LOAD /opt/microchip/xc32/v1.32/bin/bin/../../lib/gcc/pic32mx/4.5.2/../../../../pic32mx/lib/size/libpic32.a
LOAD /opt/microchip/xc32/v1.32/bin/bin/../../lib/gcc/pic32mx/4.5.2/../../../../pic32mx/lib/size/libm.a
LOAD /opt/microchip/xc32/v1.32/bin/bin/../../lib/gcc/pic32mx/4.5.2/../../../../pic32mx/lib/size/libe.a
LOAD /opt/microchip/xc32/v1.32/bin/bin/../../lib/gcc/pic32mx/4.5.2/../../../../pic32mx/lib/size/libdsp.a
LOAD /opt/microchip/xc32/v1.32/bin/bin/../../lib/gcc/pic32mx/4.5.2/size/libgcc.a
LOAD /opt/microchip/xc32/v1.32/bin/bin/../../lib/gcc/pic32mx/4.5.2/../../../../pic32mx/lib/size/libc.a
LOAD /opt/microchip/xc32/v1.32/bin/bin/../../lib/gcc/pic32mx/4.5.2/../../../../pic32mx/lib/size/libpic32.a
END GROUP
LOAD /opt/microchip/xc32/v1.32/bin/bin/../../lib/gcc/pic32mx/4.5.2/size/libgcc.a
OUTPUT(dist/pickit3/production/machikaz.X.production.elf elf32-tradlittlemips)
LOAD stack
LOAD data_init

.reginfo        0x00000000       0x18
 .reginfo       0x00000000       0x18 build/pickit3/production/_ext/1248472724/compiler.o

.stack          0xa0001df0      0x400
 .stack         0xa0001df0      0x400 stack

.RAM            0xa0002400     0xdbc0
 .RAM           0xa0002400     0xdbc0 build/pickit3/production/_ext/1248472724/globalvars.o
                0xa0002400                RAM

.g_ex_data      0xa000ffc0       0x40
 .g_ex_data     0xa000ffc0       0x40 build/pickit3/production/_ext/1248472724/globalvars.o
                0xa000ffc0                g_ex_data

.data           0xa0001920      0x100
 .data          0xa0001920      0x100 /opt/microchip/xc32/v1.32/bin/bin/../../lib/gcc/pic32mx/4.5.2/../../../../pic32mx/lib/size/libm.a(fpexatan.o)

.bss            0xa0001a20       0xe0
 .bss           0xa0001a20       0xe0 build/pickit3/production/_ext/1248472724/music.o

.data           0xa0001b00      0x174
 .data          0xa0001b00       0xa0 /opt/microchip/xc32/v1.32/bin/bin/../../lib/gcc/pic32mx/4.5.2/../../../../pic32mx/lib/size/libc.a(_iob.o)
                0xa0001b00                _iob
 .data          0xa0001ba0       0x8c /opt/microchip/xc32/v1.32/bin/bin/../../lib/gcc/pic32mx/4.5.2/../../../../pic32mx/lib/size/libm.a(fpexlog.o)
 .data          0xa0001c2c       0x48 build/pickit3/production/_ext/1248472724/error.o
                0xa0001c2c                g_err_str

.bss            0xa0001c74       0x68
 .bss           0xa0001c74       0x40 /opt/microchip/xc32/v1.32/bin/bin/../../lib/gcc/pic32mx/4.5.2/../../../../pic32mx/lib/size/libc.a(_iob.o)
                0xa0001c74                _sibuf
                0xa0001c94                _sobuf
 .bss           0xa0001cb4       0x28 source/libsdfsio.a(SD-SPI.o)

.data           0xa0001cdc       0x24
 .data          0xa0001cdc       0x24 /opt/microchip/xc32/v1.32/bin/bin/../../lib/gcc/pic32mx/4.5.2/../../../../pic32mx/lib/size/libm.a(sincof32.o)
                0xa0001cdc                _sincof
                0xa0001cec                _coscof

.data.libm      0xa0001d00       0x20
 .data.libm     0xa0001d00       0x20 /opt/microchip/xc32/v1.32/bin/bin/../../lib/gcc/pic32mx/4.5.2/../../../../pic32mx/lib/size/libm.a(fptanh.o)

.data           0xa0001d20       0x48
 .data          0xa0001d20       0x1c /opt/microchip/xc32/v1.32/bin/bin/../../lib/gcc/pic32mx/4.5.2/../../../../pic32mx/lib/size/libm.a(fpexp32.o)
 .data          0xa0001d3c       0x18 /opt/microchip/xc32/v1.32/bin/bin/../../lib/gcc/pic32mx/4.5.2/../../../../pic32mx/lib/size/libm.a(fptan32.o)
 .data          0xa0001d54       0x14 /opt/microchip/xc32/v1.32/bin/bin/../../lib/gcc/pic32mx/4.5.2/../../../../pic32mx/lib/size/libm.a(fpsinh.o)

.data.math_errhandling_flag
                0xa0001d68        0x4
 .data.math_errhandling_flag
                0xa0001d68        0x4 /opt/microchip/xc32/v1.32/bin/bin/../../lib/gcc/pic32mx/4.5.2/../../../../pic32mx/lib/size/libm.a(s_lib_ver.o)
                0xa0001d68                math_errhandling

.rodata         0x9d000000     0x6ee4
 .rodata        0x9d000000     0x6ee4 build/pickit3/production/_ext/618058229/fontx2.o
                0x9d000000                misakifont
                0x9d006ed8                pcg_space

.text           0x9d006ee4    0x1296c
 .text          0x9d006ee4     0x5bd4 source/libsdfsio.a(FSIO.o)
                0x9d006ee4                GetFullClusterNumber
                0x9d006ef8                SetClockVars
                0x9d006fc0                FSftell
                0x9d006fcc                FSerror
                0x9d006fd4                FileObjectCopy
                0x9d006ffc                ReadByte
                0x9d00700c                LoadMBR
                0x9d007238                ReadWord
                0x9d007254                ReadDWord
                0x9d0072ac                LoadBootSector
                0x9d0076ec                DISKmount
                0x9d0077a0                FSInit
                0x9d007858                Cluster2Sector
                0x9d0078b4                Write_File_Entry
                0x9d007978                flushData
                0x9d0079dc                EraseCluster
                0x9d007ad4                FSrewind
                0x9d007b1c                FSfeof
                0x9d007b34                ValidateChars
                0x9d007d00                FormatDirName
                0x9d007ed4                FormatFileName
                0x9d008104                WriteFAT
                0x9d008448                ReadFAT
                0x9d008720                FATfindEmptyCluster
                0x9d00882c                Cache_File_Entry
                0x9d008a70                LoadDirAttrib
                0x9d008b1c                FSattrib
                0x9d008be8                Fill_File_Object
                0x9d008d3c                PopulateEntries
                0x9d008e44                FILEopen
                0x9d008fa0                FILEfind
                0x9d009274                FSrename
                0x9d00939c                FILEget_next_cluster
                0x9d009480                FSfread
                0x9d0096a8                FILECreateHeadCluster
                0x9d009784                CreateFirstCluster
                0x9d0097fc                FSfclose
                0x9d009940                FILEallocate_new_cluster
                0x9d009a20                FSfseek
                0x9d009c28                FSfwrite
                0x9d009f58                FindEmptyEntries
                0x9d00a078                CreateFileEntry
                0x9d00a104                FAT_erase_cluster_chain
                0x9d00a224                FILEerase
                0x9d00a304                FSremove
                0x9d00a434                FSfopen
                0x9d00ab3c                chdirhelper
                0x9d00afd4                FSchdir
                0x9d00aff8                GetPreviousEntry
                0x9d00b1bc                FSgetcwd
                0x9d00b66c                writeDotEntries
                0x9d00b7d8                CreateDIR
                0x9d00b904                mkdirhelper
                0x9d00bd74                FSmkdir
                0x9d00bd98                eraseDir
                0x9d00be4c                rmdirhelper
                0x9d00c5a4                FSrmdir
                0x9d00c5d0                FindFirst
                0x9d00c888                FindNext
 .text          0x9d00cab8     0x4408 build/pickit3/production/_ext/1248472724/statement.o
                0x9d00cab8                rem_statement
                0x9d00cb28                sound_statement
                0x9d00cc74                music_statement
                0x9d00ccf0                exec_statement
                0x9d00ceb8                cdata_statement
                0x9d00d1e4                data_statement
                0x9d00d35c                clear_statement
                0x9d00d3c0                poke_statement
                0x9d00d4e0                dim_statement
                0x9d00d788                label_statement
                0x9d00d878                restore_statement
                0x9d00d97c                gosub_statement_sub
                0x9d00db54                gosub_statement
                0x9d00dd54                return_statement
                0x9d00de2c                goto_statement
                0x9d00df58                elseif_statement
                0x9d00e048                else_statement
                0x9d00e0e8                endif_statement
                0x9d00e170                end_statement
                0x9d00e1f4                let_dim_sub
                0x9d00e3ac                let_statement
                0x9d00e750                print_statement
                0x9d00ea58                break_statement
                0x9d00eab0                continue_statement
                0x9d00eb0c                for_statement
                0x9d00edcc                next_statement
                0x9d00ee60                do_statement
                0x9d00efb8                loop_statement
                0x9d00f124                while_statement
                0x9d00f20c                wend_statement
                0x9d00f2a0                param4_statement
                0x9d00f4c0                param3_statement
                0x9d00f678                bgcolor_statement
                0x9d00f680                pcg_statement
                0x9d00f688                usepcg_statement
                0x9d00f748                usegraphic_statement
                0x9d00f808                cls_statement
                0x9d00f86c                gcls_statement
                0x9d00f8d0                color_statement
                0x9d00f950                gcolor_statement
                0x9d00f9d0                param2_statement
                0x9d00fb14                system_statement
                0x9d00fc60                cursor_statement
                0x9d00fc68                scroll_statement
                0x9d00fc70                drawcount_statement
                0x9d00fcf0                wait_statement
                0x9d00fd70                width_statement
                0x9d00fdf0                var_statement
                0x9d010028                graphic_statement
                0x9d01050c                statement
                0x9d010bfc                if_statement
 .text          0x9d010ec0     0x2aa8 build/pickit3/production/_ext/1248472724/editor.o
                0x9d010ec1                editormalloc
                0x9d010eed                wait60thsec
                0x9d010f05                bpixtopos
                0x9d010f25                postobpix
                0x9d010f4d                linetobpix
                0x9d010f89                newTBuf
                0x9d010fc1                deleteTBuf
                0x9d010fdd                pushundomem
                0x9d0110b1                pushundomem2
                0x9d0110c9                popundomem
                0x9d0110f9                popundomem2
                0x9d011111                setundobuf
                0x9d0111bd                insertchar
                0x9d01129d                overwritechar
                0x9d0112f9                deletechar
                0x9d011371                gabagecollect1
                0x9d011499                gabagecollect2
                0x9d0114a9                inittextbuf
                0x9d0114e9                redraw
                0x9d0116cd                cursor_left
                0x9d011801                cursor_right
                0x9d0118b1                cursor_up
                0x9d0119a1                cursor_down
                0x9d011a5d                cursor_home
                0x9d011a95                cursor_end
                0x9d011ae5                cursor_pageup
                0x9d011b45                cursor_pagedown
                0x9d011bb1                cursor_top
                0x9d011be5                countarea
                0x9d011c45                deletearea_len
                0x9d011d09                deletearea
                0x9d011db1                clipcopy
                0x9d011e31                clippaste
                0x9d011ea9                movecursor
                0x9d011edd                undoexec
                0x9d011fed                set_areamode
                0x9d012019                save_cursor
                0x9d012055                restore_cursor
                0x9d012091                filesystemretry
                0x9d0120e9                sdfilecopy
                0x9d012171                savetextfile
                0x9d01220d                loadtextfile
                0x9d0122ed                overwritecheck
                0x9d012351                printfilename
                0x9d0123d9                select_dir_file
                0x9d0127b5                getfilelist
                0x9d0128d1                save_as
                0x9d012a5d                newtext
                0x9d012acd                msra
                0x9d012d49                fileload
                0x9d012edd                changewidth
                0x9d012f05                run
                0x9d0131f9                displaybottomline
                0x9d0132c5                normal_code_process
                0x9d01334d                control_code_process
                0x9d013785                texteditor
 .text          0x9d013968     0x228c build/pickit3/production/_ext/1248472724/library.o
                0x9d013968                lib_read
                0x9d013b10                reset_dataread
                0x9d013b1c                lib_midstr
                0x9d013bd8                lib_clear
                0x9d013c30                lib_let_str
                0x9d013cc0                lib_rnd
                0x9d013ce8                lib_chr
                0x9d013d1c                lib_dec
                0x9d013de0                lib_hex
                0x9d013ec4                lib_connect_string
                0x9d013f90                lib_string
                0x9d013ff4                lib_label
                0x9d01402c                lib_keys
                0x9d0140c0                lib_val
                0x9d0141ec                lib_input
                0x9d0142bc                lib_inkey
                0x9d014348                lib_usepcg
                0x9d0143b8                lib_pcg
                0x9d014460                lib_scroll30
                0x9d0145e8                lib_scroll40
                0x9d014770                lib_wait
                0x9d014844                allocate_graphic_area
                0x9d014880                lib_usegraphic
                0x9d01491c                lib_graphic
                0x9d014b64                lib_var_push
                0x9d014c6c                lib_var_pop
                0x9d014d24                lib_system
                0x9d014fac                lib_sprintf
                0x9d015044                lib_floatfuncs
                0x9d0152bc                lib_dim
                0x9d015394                lib_width
                0x9d0153dc                call_library
                0x9d015404                _call_library
 .text          0x9d015bf4     0x1fb8 source/lib_videoout_machikania.X.a(videoout.o)
                0x9d015bf4                T2Handler
                0x9d015edc                OC3Handler
                0x9d016000                OC1Handler
                0x9d0161f8                OC2Handler
                0x9d017150                clearscreen
                0x9d01717c                g_clearscreen
                0x9d01719c                set_palette
                0x9d017324                set_bgcolor
                0x9d017498                g_set_palette
                0x9d0177fc                start_composite
                0x9d01785c                stop_composite
                0x9d017888                init_composite
                0x9d017a20                set_width
                0x9d017aa0                set_graphmode
                0x9d017b04                init_graphic
 .text          0x9d017bac     0x1ca4 build/pickit3/production/_ext/1248472724/function.o
                0x9d017bac                music_function
                0x9d017c10                read_function
                0x9d017c74                cread_function
                0x9d017cd8                gosub_function
                0x9d017cf4                strncmp_function
                0x9d017e9c                len_function
                0x9d017f64                asc_function
                0x9d017fc8                val_function
                0x9d018048                peek_function
                0x9d0180ac                sgn_function
                0x9d018174                abs_function
                0x9d01820c                not_function
                0x9d018274                rnd_function
                0x9d0182d8                chr_function
                0x9d018358                hex_function
                0x9d0184fc                dec_function
                0x9d01857c                keys_function
                0x9d01866c                tvram_function
                0x9d018794                drawcount_function
                0x9d0187f8                input_function
                0x9d01885c                inkey_function
                0x9d018948                args_function
                0x9d018a18                system_function
                0x9d018ab4                sprintf_function
                0x9d018c2c                floatstr_function
                0x9d018ce8                floatsharp_function
                0x9d018d68                valsharp_function
                0x9d018de8                int_function
                0x9d018e68                float_constant
                0x9d018f30                float_1param_function
                0x9d018fbc                float_2param_function
                0x9d019148                float_function
                0x9d0193e8                str_function
                0x9d01956c                function

.text.vfprintf  0x9d019850     0x1620
 .text.vfprintf
                0x9d019850     0x1620 /opt/microchip/xc32/v1.32/bin/bin/../../lib/gcc/pic32mx/4.5.2/../../../../pic32mx/lib/size/libc.a(doprnt.o)
                0x9d019850                vfprintf

.text           0x9d01ae70     0x3420
 .text          0x9d01ae70     0x1240 source/ps2keyboard.X.a(ps2keyboard.o)
                0x9d01ae70                ps2receive
                0x9d01b00c                ps2send
                0x9d01b0a0                CNHandler
                0x9d01b1f0                ps2statusprogress
                0x9d01b4f8                ps2command
                0x9d01b534                shiftkeycheck
                0x9d01b6c0                lockkeycheck
                0x9d01b7a4                isShiftkey
                0x9d01b7fc                isLockkey
                0x9d01b83c                readscancode
                0x9d01ba9c                T5Handler
                0x9d01bc18                ps2init
                0x9d01bde0                ps2readkey
                0x9d01c04c                shiftkeys
                0x9d01c058                ps2mode
                0x9d01c084                buttonmode
 .text          0x9d01c0b0     0x11c4 source/lib_videoout_machikania.X.a(graphvideolib.o)
                0x9d01c0b0                g_pset
                0x9d01c134                g_putbmpmn
                0x9d01c414                g_clrbmpmn
                0x9d01c610                g_gline
                0x9d01c764                g_hline
                0x9d01c8a0                g_circle
                0x9d01c9f8                g_boxfill
                0x9d01cac8                g_circlefill
                0x9d01cbd4                g_putfont
                0x9d01cfb8                g_printstr
                0x9d01d038                g_printnum
                0x9d01d114                g_printnum2
                0x9d01d21c                g_color
 .text          0x9d01d274     0x101c source/libsdfsio.a(SD-SPI.o)
                0x9d01d274                MDD_SDSPI_MediaDetect
                0x9d01d27c                MDD_SDSPI_ReadSectorSize
                0x9d01d284                MDD_SDSPI_ReadCapacity
                0x9d01d28c                MDD_SDSPI_InitIO
                0x9d01d2d0                MDD_SDSPI_WriteProtectState
                0x9d01d2d8                Delayms
                0x9d01d310                CloseSPIM
                0x9d01d328                MDD_SDSPI_ShutdownMedia
                0x9d01d35c                WriteSPIM
                0x9d01d398                MDD_SDSPI_ReadMedia
                0x9d01d3d4                SendMMCCmd
                0x9d01d5dc                MDD_SDSPI_AsyncWriteTasks
                0x9d01d980                MDD_SDSPI_SectorWrite
                0x9d01d9fc                MDD_SDSPI_AsyncReadTasks
                0x9d01dd08                MDD_SDSPI_SectorRead
                0x9d01dd60                OpenSPIM
                0x9d01ddd4                InitSPISlowMode
                0x9d01de00                MDD_SDSPI_MediaInitialize

.rodata         0x9d01e290     0x1000
 .rodata        0x9d01e290     0x1000 source/lib_videoout_machikania.X.a(textvideolib.o)
                0x9d01e290                FontData
                0x9d01ea90                FontData2

.text           0x9d01f290     0x2038
 .text          0x9d01f290      0xd68 build/pickit3/production/_ext/1248472724/music.o
                0x9d01f290                musicRemaining
                0x9d01f2a4                timer4int
                0x9d01f4c4                musicGetNum
                0x9d01f518                init_music
                0x9d01f610                musicSetL
                0x9d01f65c                musicSetQ
                0x9d01f724                musicSetK
                0x9d01fb5c                musicSetM
                0x9d01fb78                set_sound
                0x9d01fc78                set_music
 .text          0x9d01fff8      0x97c build/pickit3/production/_ext/1248472724/operator.o
                0x9d01fff8                get_operator
                0x9d020208                get_floatOperator
                0x9d020284                calculation
                0x9d0206e8                calculation_float
                0x9d020754                lib_float
 .text          0x9d020974      0x954 build/pickit3/production/_ext/1248472724/value.o
                0x9d020974                get_value_sub
                0x9d020ad0                get_dim_value
                0x9d020d44                get_simple_value
                0x9d021100                get_value
                0x9d021214                get_floatOrValue
                0x9d021278                get_stringFloatOrValue

.rodata         0x9d0212c8      0x810
 .rodata        0x9d0212c8      0x810 source/ps2keyboard.X.a(ps2keyboard.o)
                0x9d0212c8                ps2scan2vktable1_jp
                0x9d02134c                ps2scan2vktable2_jp
                0x9d0213d0                vk2asc1_jp
                0x9d0214d0                vk2asc2_jp
                0x9d0215d0                vk2kana1
                0x9d0216d0                vk2kana2
                0x9d0217d0                ps2scan2vktable1_en
                0x9d021854                ps2scan2vktable2_en
                0x9d0218d8                vk2asc1_en
                0x9d0219d8                vk2asc2_en

.text           0x9d021ad8     0x1ff4
 .text          0x9d021ad8      0x7ec build/pickit3/production/_ext/1248472724/string.o
                0x9d021ad8                simple_string
                0x9d021ff4                get_string_sub
                0x9d0221b0                get_string
 .text          0x9d0222c4      0x7b0 build/pickit3/production/_ext/1248472724/linker.o
                0x9d0222c4                get_label
                0x9d022470                search_label
                0x9d022504                search_breakout
                0x9d0225a8                search_ifout
                0x9d022630                link
 .text          0x9d022a74      0x59c source/lib_videoout_machikania.X.a(textvideolib.o)
                0x9d022a74                vramscroll
                0x9d022b58                vramscrolldown
                0x9d022c30                setcursor
                0x9d022c74                setcursorcolor
                0x9d022c7c                printchar
                0x9d022d6c                printstr
                0x9d022da8                printnum
                0x9d022e40                printnum2
                0x9d022f4c                cls
                0x9d022f68                startPCG
                0x9d022fe4                stopPCG
 .text          0x9d023010      0x580 build/pickit3/production/_ext/1248472724/float.o
                0x9d023010                get_float_sub
                0x9d02316c                get_simple_float
                0x9d023478                get_float
 .text          0x9d023590      0x53c build/pickit3/production/_ext/1248472724/keyinput.o
                0x9d023590                getcursorchar
                0x9d0235b8                resetcursorchar
                0x9d0235e8                blinkcursorchar
                0x9d023670                inputchar
                0x9d0236c8                cursorinputchar
                0x9d02373c                printinputchar
                0x9d02376c                lineinput

.rodata         0x9d023acc      0x538
 .rodata        0x9d023acc      0x538 build/pickit3/production/_ext/1248472724/editor.o
                0x9d023fc0                Message1
                0x9d023fd0                Message2
                0x9d023fe4                Message3
                0x9d024000                ROOTDIR

.text           0x9d024004      0x534
 .text          0x9d024004      0x534 build/pickit3/production/_ext/1248472724/main.o
                0x9d024004                freadline
                0x9d024100                searchinittext
                0x9d024150                readinifile
                0x9d024244                printhex8
                0x9d024290                printhex16
                0x9d0242bc                printhex32
                0x9d0242e8                main

.dinit          0x9d024538      0x510
 .dinit         0x9d024538      0x510 data_init

.text           0x9d024a48     0x15cc
 .text          0x9d024a48      0x490 build/pickit3/production/_ext/1248472724/exception.o
                0x9d024a48                dumpMemory
                0x9d024a50                _general_exception_handler
                0x9d024b30                blue_screen
 .text          0x9d024ed8      0x45c /opt/microchip/xc32/v1.32/bin/bin/../../lib/gcc/pic32mx/4.5.2/size/libgcc.a(_umoddi3.o)
                0x9d024ed8                __umoddi3
 .text          0x9d025334      0x454 build/pickit3/production/_ext/1248472724/compiler.o
                0x9d025334                start_program
                0x9d0253d4                get_gp
                0x9d0253dc                get_fp
                0x9d0253e4                shift_obj
                0x9d025458                strncmp
                0x9d0254a4                nextCodeIs
                0x9d025568                compile_line
 .text          0x9d025788      0x44c /opt/microchip/xc32/v1.32/bin/bin/../../lib/gcc/pic32mx/4.5.2/size/libgcc.a(_udivdi3.o)
                0x9d025788                __udivdi3
 .text          0x9d025bd4      0x440 build/pickit3/production/_ext/1248472724/memory.o
                0x9d025bd4                set_free_area
                0x9d025c10                alloc_memory
                0x9d025c4c                calloc_memory
                0x9d025c90                _alloc_memory_main
                0x9d025e34                free_temp_str
                0x9d025e88                move_to_perm_block
                0x9d025f44                move_from_perm_block

.text.libm      0x9d026014      0x408
 .text.libm     0x9d026014      0x408 /opt/microchip/xc32/v1.32/bin/bin/../../lib/gcc/pic32mx/4.5.2/../../../../pic32mx/lib/size/libm.a(fppow32.o)
                0x9d026014                __mchp_powf
                0x9d026014                fppow

.text           0x9d02641c      0x6e8
 .text          0x9d02641c      0x384 build/pickit3/production/_ext/1248472724/error.o
                0x9d02641c                resolve_label
                0x9d026524                pre_end_addr
                0x9d0265a0                err_break
                0x9d0265cc                err_data_not_found
                0x9d0265f8                err_label_not_found
                0x9d026640                err_div_zero
                0x9d02666c                err_no_mem
                0x9d026698                err_str_complex
                0x9d0266c4                err_unknown
                0x9d0266f0                err_music
                0x9d026748                err_unexp_next
                0x9d026774                err_no_block
 .text          0x9d0267a0      0x364 build/pickit3/production/_ext/1248472724/run.o
                0x9d0267a0                printdec
                0x9d026850                runbasic

.text.__strtof  0x9d026b04      0x360
 .text.__strtof
                0x9d026b04      0x360 /opt/microchip/xc32/v1.32/bin/bin/../../lib/gcc/pic32mx/4.5.2/../../../../pic32mx/lib/size/libm.a(__strtof.o)
                0x9d026b04                __strtof

.text.libm      0x9d026e64      0x658
 .text.libm     0x9d026e64      0x350 /opt/microchip/xc32/v1.32/bin/bin/../../lib/gcc/pic32mx/4.5.2/../../../../pic32mx/lib/size/libm.a(fpexatan.o)
                0x9d026e64                fpexatan
 .text.libm     0x9d0271b4      0x308 /opt/microchip/xc32/v1.32/bin/bin/../../lib/gcc/pic32mx/4.5.2/../../../../pic32mx/lib/size/libm.a(fpsinh.o)
                0x9d0272e4                fpsinh
                0x9d0272e4                __mchp_sinhf

.text.atan2f    0x9d0274bc      0x300
 .text.atan2f   0x9d0274bc      0x300 /opt/microchip/xc32/v1.32/bin/bin/../../lib/gcc/pic32mx/4.5.2/../../../../pic32mx/lib/size/libm.a(w_atan2f.o)
                0x9d0274bc                atan2f

.text.libm      0x9d0277bc      0x2b4
 .text.libm     0x9d0277bc      0x2b4 /opt/microchip/xc32/v1.32/bin/bin/../../lib/gcc/pic32mx/4.5.2/../../../../pic32mx/lib/size/libm.a(fpexlog.o)
                0x9d0277bc                fpexlog

.text.fpsubadd  0x9d027a70      0x278
 .text.fpsubadd
                0x9d027a70      0x278 /opt/microchip/xc32/v1.32/bin/bin/../../lib/gcc/pic32mx/4.5.2/../../../../pic32mx/lib/size/libm.a(fp32subadd.o)
                0x9d027a70                __subsf3
                0x9d027a70                fpsub
                0x9d027a78                fpadd
                0x9d027a78                __addsf3

.text           0x9d027ce8      0x274
 .text          0x9d027ce8      0x274 build/pickit3/production/_ext/1248472724/file.o
                0x9d027ce8                init_file
                0x9d027d3c                close_file
                0x9d027d44                read_file
                0x9d027ea0                compile_file

.text.libm      0x9d027f5c      0x274
 .text.libm     0x9d027f5c      0x274 /opt/microchip/xc32/v1.32/bin/bin/../../lib/gcc/pic32mx/4.5.2/../../../../pic32mx/lib/size/libm.a(fptanh.o)
                0x9d027f5c                tanhf
                0x9d027f5c                fptanh

.text           0x9d0281d0      0x254
 .text          0x9d0281d0      0x254 build/pickit3/production/_ext/618058229/fontx2.o
                0x9d0281d0                isZENKAKU
                0x9d0281fc                get_font
                0x9d0282c4                initforKANJI
                0x9d0282ec                drawKANJI
                0x9d0283a4                jresetPCG
                0x9d0283b0                printincludekanzistr

.text.libm      0x9d028424      0x248
 .text.libm     0x9d028424      0x248 /opt/microchip/xc32/v1.32/bin/bin/../../lib/gcc/pic32mx/4.5.2/../../../../pic32mx/lib/size/libm.a(fpatan2.o)
                0x9d028424                fpatan2
                0x9d028424                __mchp_atan2f

.text.fp32div   0x9d02866c      0x230
 .text.fp32div  0x9d02866c      0x230 /opt/microchip/xc32/v1.32/bin/bin/../../lib/gcc/pic32mx/4.5.2/../../../../pic32mx/lib/size/libm.a(fp32div.o)
                0x9d02866c                __divsf3
                0x9d02866c                fpdiv

.text.__floatdisf
                0x9d02889c      0x220
 .text.__floatdisf
                0x9d02889c      0x220 /opt/microchip/xc32/v1.32/bin/bin/../../lib/gcc/pic32mx/4.5.2/../../../../pic32mx/lib/size/libe.a(_floatdisf.o)
                0x9d02889c                __floatdisf

.rodata         0x9d028abc      0x434
 .rodata        0x9d028abc      0x21c build/pickit3/production/_ext/1248472724/error.o
 .rodata        0x9d028cd8      0x218 build/pickit3/production/_ext/1248472724/music.o

.text.libm      0x9d028ef0      0x208
 .text.libm     0x9d028ef0      0x208 /opt/microchip/xc32/v1.32/bin/bin/../../lib/gcc/pic32mx/4.5.2/../../../../pic32mx/lib/size/libm.a(fpacos.o)
                0x9d028ef0                fpacos
                0x9d028ef0                __mchp_acosf

.text           0x9d0290f8      0x204
 .text          0x9d0290f8      0x204 /opt/microchip/xc32/v1.32/bin/bin/../../lib/gcc/pic32mx/4.5.2/../../../../pic32mx/lib/size/libm.a(fpexp32.o)
                0x9d0290f8                fpexexp
                0x9d029210                __mchp_expf
                0x9d029210                fpexp

.rodata         0x9d0292fc      0x1ec
 .rodata        0x9d0292fc      0x1ec build/pickit3/production/_ext/1248472724/statement.o

.text.libm      0x9d0294e8      0x1dc
 .text.libm     0x9d0294e8      0x1dc /opt/microchip/xc32/v1.32/bin/bin/../../lib/gcc/pic32mx/4.5.2/../../../../pic32mx/lib/size/libm.a(fpasin.o)
                0x9d0294e8                __mchp_asinf
                0x9d0294e8                fpasin

.rodata         0x9d0296c4      0x394
 .rodata        0x9d0296c4      0x1d0 build/pickit3/production/_ext/1248472724/function.o
 .rodata        0x9d029894      0x1c4 build/pickit3/production/_ext/1248472724/exception.o

.text.fp32mul   0x9d029a58      0x1bc
 .text.fp32mul  0x9d029a58      0x1bc /opt/microchip/xc32/v1.32/bin/bin/../../lib/gcc/pic32mx/4.5.2/../../../../pic32mx/lib/size/libm.a(fp32mul.o)
                0x9d029a58                __mulsf3
                0x9d029a58                fpmul

.text           0x9d029c14      0x1ac
 .text          0x9d029c14      0x1ac /opt/microchip/xc32/v1.32/bin/bin/../../lib/gcc/pic32mx/4.5.2/../../../../pic32mx/lib/size/libm.a(fptan32.o)
                0x9d029c14                fptan
                0x9d029c14                tanf

.text.libm      0x9d029dc0      0x1ac
 .text.libm     0x9d029dc0      0x1ac /opt/microchip/xc32/v1.32/bin/bin/../../lib/gcc/pic32mx/4.5.2/../../../../pic32mx/lib/size/libm.a(fpsqrt32.o)
                0x9d029dc0                __mchp_sqrtf
                0x9d029dc0                fpsqrt

.text           0x9d029f6c      0x308
 .text          0x9d029f6c      0x1a0 /opt/microchip/xc32/v1.32/bin/bin/../../lib/gcc/pic32mx/4.5.2/../../../../pic32mx/lib/size/libpic32.a(strcpy.o)
                0x9d029f6c                strcpy
 .text          0x9d02a10c      0x168 /opt/microchip/xc32/v1.32/bin/bin/../../lib/gcc/pic32mx/4.5.2/../../../../pic32mx/lib/size/libpic32.a(strlen.o)
                0x9d02a10c                strlen

.rodata         0x9d02a274      0x160
 .rodata        0x9d02a274      0x160 build/pickit3/production/_ext/1248472724/main.o
                0x9d02a3a4                InitKeywords

.text.powf      0x9d02a3d4      0x160
 .text.powf     0x9d02a3d4      0x160 /opt/microchip/xc32/v1.32/bin/bin/../../lib/gcc/pic32mx/4.5.2/../../../../pic32mx/lib/size/libm.a(w_powf.o)
                0x9d02a3d4                powf

.text.scale     0x9d02a534      0x150
 .text.scale    0x9d02a534      0x150 /opt/microchip/xc32/v1.32/bin/bin/../../lib/gcc/pic32mx/4.5.2/../../../../pic32mx/lib/size/libc.a(doprnt.o)

.text.OSCConfig
                0x9d02a684      0x14c
 .text.OSCConfig
                0x9d02a684      0x14c /opt/microchip/xc32/v1.32/bin/bin/../../lib/gcc/pic32mx/4.5.2/../../../../pic32mx/lib/size/libmchp_peripheral_32MX150F128B.a(osc_config_lib.o)
                0x9d02a684                OSCConfig

.text.libm      0x9d02a7d0      0x27c
 .text.libm     0x9d02a7d0      0x148 /opt/microchip/xc32/v1.32/bin/bin/../../lib/gcc/pic32mx/4.5.2/../../../../pic32mx/lib/size/libm.a(fpfmod.o)
                0x9d02a7d0                fmodf
                0x9d02a7d0                fpfmod
 .text.libm     0x9d02a918      0x134 /opt/microchip/xc32/v1.32/bin/bin/../../lib/gcc/pic32mx/4.5.2/../../../../pic32mx/lib/size/libm.a(fpcosh.o)
                0x9d02a918                fpcosh
                0x9d02a918                __mchp_coshf

.text.dpcmp     0x9d02aa4c      0x12c
 .text.dpcmp    0x9d02aa4c      0x12c /opt/microchip/xc32/v1.32/bin/bin/../../lib/gcc/pic32mx/4.5.2/../../../../pic32mx/lib/size/libm.a(dpcmp.o)
                0x9d02aa4c                __eqdf2
                0x9d02aa4c                __gtdf2
                0x9d02aa4c                __ltdf2
                0x9d02aa4c                dpcmp
                0x9d02aa4c                __ledf2
                0x9d02aa4c                __nedf2
                0x9d02aa4c                __gedf2

.text.fputc     0x9d02ab78      0x128
 .text.fputc    0x9d02ab78      0x128 /opt/microchip/xc32/v1.32/bin/bin/../../lib/gcc/pic32mx/4.5.2/../../../../pic32mx/lib/size/libc.a(_fputc_simple.o)
                0x9d02ab78                fputc

.text.fround    0x9d02aca0      0x120
 .text.fround   0x9d02aca0      0x120 /opt/microchip/xc32/v1.32/bin/bin/../../lib/gcc/pic32mx/4.5.2/../../../../pic32mx/lib/size/libc.a(doprnt.o)

.text.libm      0x9d02adc0      0x234
 .text.libm     0x9d02adc0      0x11c /opt/microchip/xc32/v1.32/bin/bin/../../lib/gcc/pic32mx/4.5.2/../../../../pic32mx/lib/size/libm.a(fpsin32.o)
                0x9d02adc0                fpsin
                0x9d02adc0                sinf
 .text.libm     0x9d02aedc      0x118 /opt/microchip/xc32/v1.32/bin/bin/../../lib/gcc/pic32mx/4.5.2/../../../../pic32mx/lib/size/libm.a(fpcos32.o)
                0x9d02aedc                fpcos
                0x9d02aedc                cosf

.text._flsbuf   0x9d02aff4      0x110
 .text._flsbuf  0x9d02aff4      0x110 /opt/microchip/xc32/v1.32/bin/bin/../../lib/gcc/pic32mx/4.5.2/../../../../pic32mx/lib/size/libc.a(_flsbuf_simple.o)
                0x9d02aff4                _flsbuf

.text.libm      0x9d02b104      0x10c
 .text.libm     0x9d02b104      0x10c /opt/microchip/xc32/v1.32/bin/bin/../../lib/gcc/pic32mx/4.5.2/../../../../pic32mx/lib/size/libm.a(fpreduct32.o)
                0x9d02b104                fpreduct

.rodata         0x9d02b210      0x104
 .rodata        0x9d02b210      0x104 /opt/microchip/xc32/v1.32/bin/bin/../../lib/gcc/pic32mx/4.5.2/../../../../pic32mx/lib/size/libc.a(ctype.o)
                0x9d02b210                _ctype

.text.__ldexpf  0x9d02b314      0x104
 .text.__ldexpf
                0x9d02b314      0x104 /opt/microchip/xc32/v1.32/bin/bin/../../lib/gcc/pic32mx/4.5.2/../../../../pic32mx/lib/size/libe.a(_ldexpf.o)
                0x9d02b314                __ldexpf

.text._NVMOperation
                0x9d02b418      0x100
 .text._NVMOperation
                0x9d02b418      0x100 /opt/microchip/xc32/v1.32/bin/bin/../../lib/gcc/pic32mx/4.5.2/../../../../pic32mx/lib/size/libmchp_peripheral_32MX150F128B.a(nvm_operation_lib.o)
                0x9d02b418                _NVMOperation

.text.dptofp    0x9d02b518      0x100
 .text.dptofp   0x9d02b518      0x100 /opt/microchip/xc32/v1.32/bin/bin/../../lib/gcc/pic32mx/4.5.2/../../../../pic32mx/lib/size/libm.a(dptofp.o)
                0x9d02b518                dptofp
                0x9d02b518                __truncdfsf2

.text.libm      0x9d02b618       0xfc
 .text.libm     0x9d02b618       0xfc /opt/microchip/xc32/v1.32/bin/bin/../../lib/gcc/pic32mx/4.5.2/../../../../pic32mx/lib/size/libm.a(fpexsqrt32.o)
                0x9d02b618                fpexsqrt

.rodata         0x9d02b714       0xf0
 .rodata        0x9d02b714       0xf0 source/libsdfsio.a(SD-SPI.o)
                0x9d02b714                sdmmc_cmdtable

.text.libm      0x9d02b804       0xf0
 .text.libm     0x9d02b804       0xf0 /opt/microchip/xc32/v1.32/bin/bin/../../lib/gcc/pic32mx/4.5.2/../../../../pic32mx/lib/size/libm.a(fplog10.o)
                0x9d02b804                __mchp_log10f
                0x9d02b804                fplog10

.rodata         0x9d02b8f8       0xe8
 .rodata        0x9d02b8f8       0xe8 /opt/microchip/xc32/v1.32/bin/bin/../../lib/gcc/pic32mx/4.5.2/../../../../pic32mx/lib/size/libc.a(doprnt.o)

.text.general_exception
                0x9d02b9e0       0xdc
 .text.general_exception
                0x9d02b9e0       0xdc /opt/microchip/xc32/v1.32/bin/bin/../../lib/gcc/pic32mx/4.5.2/../../../../pic32mx/lib/size/libpic32.a(general-exception.o)
                0x9d02b9e0                _general_exception_context

.text.libm      0x9d02babc       0xd4
 .text.libm     0x9d02babc       0xd4 /opt/microchip/xc32/v1.32/bin/bin/../../lib/gcc/pic32mx/4.5.2/../../../../pic32mx/lib/size/libm.a(fpmodf.o)
                0x9d02babc                modff
                0x9d02babc                fpmodf

.text           0x9d02bb90       0xd4
 .text          0x9d02bb90       0xd4 /opt/microchip/xc32/v1.32/bin/bin/../../lib/gcc/pic32mx/4.5.2/size/libgcc.a(_floatundisf.o)
                0x9d02bb90                __floatundisf

.text.libm      0x9d02bc64       0xc4
 .text.libm     0x9d02bc64       0xc4 /opt/microchip/xc32/v1.32/bin/bin/../../lib/gcc/pic32mx/4.5.2/../../../../pic32mx/lib/size/libm.a(fplog.o)
                0x9d02bc64                fplog
                0x9d02bc64                __mchp_logf

.text.log10f    0x9d02bd28       0xc0
 .text.log10f   0x9d02bd28       0xc0 /opt/microchip/xc32/v1.32/bin/bin/../../lib/gcc/pic32mx/4.5.2/../../../../pic32mx/lib/size/libm.a(w_log10f.o)
                0x9d02bd28                log10f

.text.logf      0x9d02bde8       0xc0
 .text.logf     0x9d02bde8       0xc0 /opt/microchip/xc32/v1.32/bin/bin/../../lib/gcc/pic32mx/4.5.2/../../../../pic32mx/lib/size/libm.a(w_logf.o)
                0x9d02bde8                logf

.text.libm      0x9d02bea8       0xb4
 .text.libm     0x9d02bea8       0xb4 /opt/microchip/xc32/v1.32/bin/bin/../../lib/gcc/pic32mx/4.5.2/../../../../pic32mx/lib/size/libm.a(fpfloo32.o)
                0x9d02bea8                fpfloor
                0x9d02bea8                floorf

.text._mon_putc
                0x9d02bf5c       0xb4
 .text._mon_putc
                0x9d02bf5c       0xb4 /opt/microchip/xc32/v1.32/bin/bin/../../lib/gcc/pic32mx/4.5.2/../../../../pic32mx/lib/size/libpic32.a(_mon_putc.o)
                0x9d02bf5c                _mon_putc

.text.libm      0x9d02c010       0xb0
 .text.libm     0x9d02c010       0xb0 /opt/microchip/xc32/v1.32/bin/bin/../../lib/gcc/pic32mx/4.5.2/../../../../pic32mx/lib/size/libm.a(fpceil32.o)
                0x9d02c010                fpceil
                0x9d02c010                ceilf

.text.fptodp    0x9d02c0c0       0xac
 .text.fptodp   0x9d02c0c0       0xac /opt/microchip/xc32/v1.32/bin/bin/../../lib/gcc/pic32mx/4.5.2/../../../../pic32mx/lib/size/libm.a(fptodp.o)
                0x9d02c0c0                __extendsfdf2
                0x9d02c0c0                fptodp

.text           0x9d02c16c       0xa8
 .text          0x9d02c16c       0xa8 /opt/microchip/xc32/v1.32/bin/bin/../../lib/gcc/pic32mx/4.5.2/../../../../pic32mx/lib/size/libpic32.a(memset.o)
                0x9d02c16c                memset

.text.fpatan    0x9d02c214       0xa0
 .text.fpatan   0x9d02c214       0xa0 /opt/microchip/xc32/v1.32/bin/bin/../../lib/gcc/pic32mx/4.5.2/../../../../pic32mx/lib/size/libm.a(fpatan.o)
                0x9d02c214                fpatan
                0x9d02c214                atanf

.text.fpcmp     0x9d02c2b4       0x9c
 .text.fpcmp    0x9d02c2b4       0x9c /opt/microchip/xc32/v1.32/bin/bin/../../lib/gcc/pic32mx/4.5.2/../../../../pic32mx/lib/size/libm.a(fpcmp.o)
                0x9d02c2b4                __lesf2
                0x9d02c2b4                __nesf2
                0x9d02c2b4                __gtsf2
                0x9d02c2b4                __eqsf2
                0x9d02c2b4                __ltsf2
                0x9d02c2b4                fpcmp
                0x9d02c2b4                __gesf2

.text.write     0x9d02c350       0x88
 .text.write    0x9d02c350       0x88 /opt/microchip/xc32/v1.32/bin/bin/../../lib/gcc/pic32mx/4.5.2/../../../../pic32mx/lib/size/libpic32.a(write.o)
                0x9d02c350                write

.text.libm      0x9d02c3d8       0x88
 .text.libm     0x9d02c3d8       0x88 /opt/microchip/xc32/v1.32/bin/bin/../../lib/gcc/pic32mx/4.5.2/../../../../pic32mx/lib/size/libm.a(fpfrexp.o)
                0x9d02c3d8                fpfrexp
                0x9d02c3d8                frexpf

.rodata         0x9d02c460       0x80
 .rodata        0x9d02c460       0x80 /opt/microchip/xc32/v1.32/bin/bin/../../lib/gcc/pic32mx/4.5.2/../../../../pic32mx/lib/size/libmchp_peripheral_32MX150F128B.a(spi_brg_tbl_lib_legacy.o)
                0x9d02c460                _SpiBrgConvTbl

.text.fptoli    0x9d02c4e0       0x80
 .text.fptoli   0x9d02c4e0       0x80 /opt/microchip/xc32/v1.32/bin/bin/../../lib/gcc/pic32mx/4.5.2/../../../../pic32mx/lib/size/libm.a(fptoli.o)
                0x9d02c4e0                __fixsfsi
                0x9d02c4e0                fptoli
                0x9d02c4e0                fptosi

.text.acosf     0x9d02c560       0x7c
 .text.acosf    0x9d02c560       0x7c /opt/microchip/xc32/v1.32/bin/bin/../../lib/gcc/pic32mx/4.5.2/../../../../pic32mx/lib/size/libm.a(w_acosf.o)
                0x9d02c560                acosf

.text.asinf     0x9d02c5dc       0x7c
 .text.asinf    0x9d02c5dc       0x7c /opt/microchip/xc32/v1.32/bin/bin/../../lib/gcc/pic32mx/4.5.2/../../../../pic32mx/lib/size/libm.a(w_asinf.o)
                0x9d02c5dc                asinf

.text.fptoul    0x9d02c658       0x7c
 .text.fptoul   0x9d02c658       0x7c /opt/microchip/xc32/v1.32/bin/bin/../../lib/gcc/pic32mx/4.5.2/../../../../pic32mx/lib/size/libm.a(fptoul.o)
                0x9d02c658                fptoui
                0x9d02c658                __fixunssfsi
                0x9d02c658                fptoul

.text.SoftReset
                0x9d02c6d4       0x78
 .text.SoftReset
                0x9d02c6d4       0x78 /opt/microchip/xc32/v1.32/bin/bin/../../lib/gcc/pic32mx/4.5.2/../../../../pic32mx/lib/size/libmchp_peripheral_32MX150F128B.a(soft_reset_lib.o)
                0x9d02c6d4                SoftReset

.rodata         0x9d02c74c       0x68
 .rodata        0x9d02c74c       0x68 /opt/microchip/xc32/v1.32/bin/bin/../../lib/gcc/pic32mx/4.5.2/../../../../pic32mx/lib/size/libc.a(powersf.o)
                0x9d02c74c                _powers_f
                0x9d02c780                _npowers_f

.text.coshf     0x9d02c7b4       0x64
 .text.coshf    0x9d02c7b4       0x64 /opt/microchip/xc32/v1.32/bin/bin/../../lib/gcc/pic32mx/4.5.2/../../../../pic32mx/lib/size/libm.a(w_coshf.o)
                0x9d02c7b4                coshf

.text.expf      0x9d02c818       0x64
 .text.expf     0x9d02c818       0x64 /opt/microchip/xc32/v1.32/bin/bin/../../lib/gcc/pic32mx/4.5.2/../../../../pic32mx/lib/size/libm.a(w_expf.o)
                0x9d02c818                expf

.text.sinhf     0x9d02c87c       0x64
 .text.sinhf    0x9d02c87c       0x64 /opt/microchip/xc32/v1.32/bin/bin/../../lib/gcc/pic32mx/4.5.2/../../../../pic32mx/lib/size/libm.a(w_sinhf.o)
                0x9d02c87c                sinhf

.text.OpenSPI2  0x9d02c8e0       0x60
 .text.OpenSPI2
                0x9d02c8e0       0x60 /opt/microchip/xc32/v1.32/bin/bin/../../lib/gcc/pic32mx/4.5.2/../../../../pic32mx/lib/size/libmchp_peripheral_32MX150F128B.a(spi_open_spi2_lib_legacy.o)
                0x9d02c8e0                OpenSPI2

.text.sitofp    0x9d02c940       0x60
 .text.sitofp   0x9d02c940       0x60 /opt/microchip/xc32/v1.32/bin/bin/../../lib/gcc/pic32mx/4.5.2/../../../../pic32mx/lib/size/libm.a(sitofp.o)
                0x9d02c940                sitofp
                0x9d02c940                __floatsisf
                0x9d02c940                litofp

.rodata         0x9d02c9a0       0x58
 .rodata        0x9d02c9a0       0x58 build/pickit3/production/_ext/1248472724/run.o

.text.vsnprintf
                0x9d02c9f8       0x54
 .text.vsnprintf
                0x9d02c9f8       0x54 /opt/microchip/xc32/v1.32/bin/bin/../../lib/gcc/pic32mx/4.5.2/../../../../pic32mx/lib/size/libc.a(vsnprintf.o)
                0x9d02c9f8                vsnprintf

.text.sqrtf     0x9d02ca4c       0x50
 .text.sqrtf    0x9d02ca4c       0x50 /opt/microchip/xc32/v1.32/bin/bin/../../lib/gcc/pic32mx/4.5.2/../../../../pic32mx/lib/size/libm.a(w_sqrtf.o)
                0x9d02ca4c                sqrtf

.text.strncpy   0x9d02ca9c       0x50
 .text.strncpy  0x9d02ca9c       0x50 /opt/microchip/xc32/v1.32/bin/bin/../../lib/gcc/pic32mx/4.5.2/../../../../pic32mx/lib/size/libc.a(strncpy.o)
                0x9d02ca9c                strncpy

.text.main_entry
                0x9d02caec       0x4c
 .text.main_entry
                0x9d02caec       0x4c build/pickit3/production/_ext/618058229/crt0.o
                0x9d02cb18                __crt0_exit

.text           0x9d02cb38       0x4c
 .text          0x9d02cb38       0x4c /opt/microchip/xc32/v1.32/bin/bin/../../lib/gcc/pic32mx/4.5.2/size/libgcc.a(floatunsisf.o)
                0x9d02cb38                __floatunsisf

.text._bootstrap_exception_handler
                0x9d02cb84       0x48
 .text._bootstrap_exception_handler
                0x9d02cb84       0x48 /opt/microchip/xc32/v1.32/bin/bin/../../lib/gcc/pic32mx/4.5.2/../../../../pic32mx/lib/size/libpic32.a(default-bootstrap-exception-handler.o)
                0x9d02cb84                _bootstrap_exception_handler

.text           0x9d02cbcc       0x44
 .text          0x9d02cbcc       0x44 /opt/microchip/xc32/v1.32/bin/bin/../../lib/gcc/pic32mx/4.5.2/size/libgcc.a(_lshrdi3.o)
                0x9d02cbcc                __lshrdi3

.rodata         0x9d02cc10       0x3c
 .rodata        0x9d02cc10       0x3c build/pickit3/production/_ext/1248472724/library.o

.text.INTEnableSystemMultiVectoredInt
                0x9d02cc4c       0x34
 .text.INTEnableSystemMultiVectoredInt
                0x9d02cc4c       0x34 /opt/microchip/xc32/v1.32/bin/bin/../../lib/gcc/pic32mx/4.5.2/../../../../pic32mx/lib/size/libmchp_peripheral_32MX150F128B.a(int_enable_mv_int_lib.o)
                0x9d02cc4c                INTEnableSystemMultiVectoredInt

.text.NVMWriteWord
                0x9d02cc80       0x34
 .text.NVMWriteWord
                0x9d02cc80       0x34 /opt/microchip/xc32/v1.32/bin/bin/../../lib/gcc/pic32mx/4.5.2/../../../../pic32mx/lib/size/libmchp_peripheral_32MX150F128B.a(nvm_write_word_lib.o)
                0x9d02cc80                NVMWriteWord

.rodata         0x9d02ccb8       0x28
 .rodata        0x9d02ccb8       0x28 /opt/microchip/xc32/v1.32/bin/bin/../../lib/gcc/pic32mx/4.5.2/../../../../pic32mx/lib/size/libm.a(w_atan2f.o)

.text.getcSPI2  0x9d02cce0       0x24
 .text.getcSPI2
                0x9d02cce0       0x24 /opt/microchip/xc32/v1.32/bin/bin/../../lib/gcc/pic32mx/4.5.2/../../../../pic32mx/lib/size/libmchp_peripheral_32MX150F128B.a(spi_getc_spi2_lib_legacy.o)
                0x9d02cce0                getcSPI2

.text.isinfl    0x9d02cd04       0x24
 .text.isinfl   0x9d02cd04       0x24 /opt/microchip/xc32/v1.32/bin/bin/../../lib/gcc/pic32mx/4.5.2/../../../../pic32mx/lib/size/libpic32.a(isinf.o)
                0x9d02cd04                isinfl

.text.tolower   0x9d02cd28       0x24
 .text.tolower  0x9d02cd28       0x24 /opt/microchip/xc32/v1.32/bin/bin/../../lib/gcc/pic32mx/4.5.2/../../../../pic32mx/lib/size/libc.a(ctypef.o)
                0x9d02cd28                tolower

.text.toupper   0x9d02cd4c       0x24
 .text.toupper  0x9d02cd4c       0x24 /opt/microchip/xc32/v1.32/bin/bin/../../lib/gcc/pic32mx/4.5.2/../../../../pic32mx/lib/size/libc.a(ctypef.o)
                0x9d02cd4c                toupper

.text.snprintf  0x9d02cd70       0x24
 .text.snprintf
                0x9d02cd70       0x24 /opt/microchip/xc32/v1.32/bin/bin/../../lib/gcc/pic32mx/4.5.2/../../../../pic32mx/lib/size/libc.a(snprintf.o)
                0x9d02cd70                snprintf

.text.INTRestoreInterrupts
                0x9d02cd94       0x1c
 .text.INTRestoreInterrupts
                0x9d02cd94       0x1c /opt/microchip/xc32/v1.32/bin/bin/../../lib/gcc/pic32mx/4.5.2/../../../../pic32mx/lib/size/libmchp_peripheral_32MX150F128B.a(int_restore_interrupts_lib.o)
                0x9d02cd94                INTRestoreInterrupts

.text.finitel   0x9d02cdb0       0x1c
 .text.finitel  0x9d02cdb0       0x1c /opt/microchip/xc32/v1.32/bin/bin/../../lib/gcc/pic32mx/4.5.2/../../../../pic32mx/lib/size/libm.a(support.o)
                0x9d02cdb0                finitel

.text.strtof    0x9d02cdcc       0x1c
 .text.strtof   0x9d02cdcc       0x1c /opt/microchip/xc32/v1.32/bin/bin/../../lib/gcc/pic32mx/4.5.2/../../../../pic32mx/lib/size/libc.a(strtof.o)
                0x9d02cdcc                strtof

.rodata         0x9d02cde8       0x18
 .rodata        0x9d02cde8       0x18 build/pickit3/production/_ext/1248472724/operator.o
                0x9d02cde8                g_priority

.text           0x9d02ce00       0x18
 .text          0x9d02ce00       0x18 /opt/microchip/xc32/v1.32/bin/bin/../../lib/gcc/pic32mx/4.5.2/../../../../pic32mx/lib/size/libpic32.a(default-nmi-handler.o)
                0x9d02ce00                _nmi_handler

.rodata         0x9d02ce18       0x18
 .rodata        0x9d02ce18       0x18 /opt/microchip/xc32/v1.32/bin/bin/../../lib/gcc/pic32mx/4.5.2/../../../../pic32mx/lib/size/libm.a(__strtof.o)

.text.fpfabs    0x9d02ce30       0x14
 .text.fpfabs   0x9d02ce30       0x14 /opt/microchip/xc32/v1.32/bin/bin/../../lib/gcc/pic32mx/4.5.2/../../../../pic32mx/lib/size/libm.a(fpfabs.o)
                0x9d02ce30                fabsf
                0x9d02ce30                fpfabs

.text.negsf2    0x9d02ce44       0x14
 .text.negsf2   0x9d02ce44       0x14 /opt/microchip/xc32/v1.32/bin/bin/../../lib/gcc/pic32mx/4.5.2/../../../../pic32mx/lib/size/libm.a(negsf2.o)
                0x9d02ce44                __negsf2

.rodata         0x9d02ce58       0x18
 .rodata        0x9d02ce58       0x10 build/pickit3/production/_ext/1248472724/file.o
 .rodata        0x9d02ce68        0x8 build/pickit3/production/_ext/1248472724/compiler.o

.text.INTDisableInterrupts
                0x9d02ce70        0x8
 .text.INTDisableInterrupts
                0x9d02ce70        0x8 /opt/microchip/xc32/v1.32/bin/bin/../../lib/gcc/pic32mx/4.5.2/../../../../pic32mx/lib/size/libmchp_peripheral_32MX150F128B.a(int_disable_interrupts_lib.o)
                0x9d02ce70                INTDisableInterrupts

.text.INTEnableInterrupts
                0x9d02ce78        0x8
 .text.INTEnableInterrupts
                0x9d02ce78        0x8 /opt/microchip/xc32/v1.32/bin/bin/../../lib/gcc/pic32mx/4.5.2/../../../../pic32mx/lib/size/libmchp_peripheral_32MX150F128B.a(int_enable_interrupts_lib.o)
                0x9d02ce78                INTEnableInterrupts

.text._on_reset
                0x9d02ce80        0x8
 .text._on_reset
                0x9d02ce80        0x8 /opt/microchip/xc32/v1.32/bin/bin/../../lib/gcc/pic32mx/4.5.2/../../../../pic32mx/lib/size/libpic32.a(default-on-reset.o)
                0x9d02ce80                _on_reset

.text._on_bootstrap
                0x9d02ce88        0x8
 .text._on_bootstrap
                0x9d02ce88        0x8 /opt/microchip/xc32/v1.32/bin/bin/../../lib/gcc/pic32mx/4.5.2/../../../../pic32mx/lib/size/libpic32.a(default-on-bootstrap.o)
                0x9d02ce88                _on_bootstrap

.rodata         0x9d02ce90        0x8
 .rodata        0x9d02ce90        0x8 /opt/microchip/xc32/v1.32/bin/bin/../../lib/gcc/pic32mx/4.5.2/size/libgcc.a(_floatundisf.o)

.rodata         0x9d02b8f4        0x4
 .rodata        0x9d02b8f4        0x4 source/libsdfsio.a(FSIO.o)

.rodata         0x9d02ccb4        0x4
 .rodata        0x9d02ccb4        0x4 /opt/microchip/xc32/v1.32/bin/bin/../../lib/gcc/pic32mx/4.5.2/../../../../pic32mx/lib/size/libm.a(w_acosf.o)

.rodata         0x9d02ce98        0x8
 .rodata        0x9d02ce98        0x4 /opt/microchip/xc32/v1.32/bin/bin/../../lib/gcc/pic32mx/4.5.2/../../../../pic32mx/lib/size/libm.a(w_asinf.o)
 .rodata        0x9d02ce9c        0x4 /opt/microchip/xc32/v1.32/bin/bin/../../lib/gcc/pic32mx/4.5.2/../../../../pic32mx/lib/size/libm.a(w_powf.o)
